gpasm-0.13.7 beta               Objects/LCDNonBlocking.asm12-10-2017  20:48:42         PAGE  1


LOC  OBJECT CODE     LINE SOURCE TEXT
  VALUE
 
               00001 ;--------------------------------------------------------
               00002 ; File Created by SDCC : free open source ANSI-C Compiler
               00003 ; Version 2.9.4 #5595 (Nov 15 2017) (UNIX)
               00004 ; This file was generated Sun Dec 10 20:48:42 2017
               00005 ;--------------------------------------------------------
               00006 ; PIC16 port for the Microchip 16-bit core micros
               00007 ;--------------------------------------------------------
               00008         list    p=18f97j60
               00009 
               00010         radix dec
               00011 
               00012 ;--------------------------------------------------------
               00013 ; public variables in this module
               00014 ;--------------------------------------------------------
               00015         global _LCDTaskInit
               00016         global _LCDTask
               00017         global _LCDInit
               00018         global _LCDErase
               00019         global _LCDUpdate
               00020         global _LCDText
               00021 
               00022 ;--------------------------------------------------------
               00023 ; extern variables in this module
               00024 ;--------------------------------------------------------
               00025         extern _EBSTCONbits
               00026         extern _MISTATbits
               00027         extern _EFLOCONbits
               00028         extern _MACON1bits
               00029         extern _MACON2bits
               00030         extern _MACON3bits
               00031         extern _MACON4bits
               00032         extern _MACLCON1bits
               00033         extern _MACLCON2bits
               00034         extern _MICONbits
               00035         extern _MICMDbits
               00036         extern _EWOLIEbits
               00037         extern _EWOLIRbits
               00038         extern _ERXFCONbits
               00039         extern _EIEbits
               00040         extern _ESTATbits
               00041         extern _ECON2bits
               00042         extern _EIRbits
               00043         extern _EDATAbits
               00044         extern _SSP2CON2bits
               00045         extern _SSP2CON1bits
               00046         extern _SSP2STATbits
               00047         extern _ECCP2DELbits
               00048         extern _ECCP2ASbits
               00049         extern _ECCP3DELbits
               00050         extern _ECCP3ASbits
               00051         extern _RCSTA2bits
               00052         extern _TXSTA2bits
               00053         extern _CCP5CONbits
               00054         extern _CCP4CONbits
gpasm-0.13.7 beta               Objects/LCDNonBlocking.asm12-10-2017  20:48:42         PAGE  2


LOC  OBJECT CODE     LINE SOURCE TEXT
  VALUE
 
               00055         extern _T4CONbits
               00056         extern _ECCP1DELbits
               00057         extern _BAUDCON2bits
               00058         extern _BAUDCTL2bits
               00059         extern _BAUDCONbits
               00060         extern _BAUDCON1bits
               00061         extern _BAUDCTLbits
               00062         extern _BAUDCTL1bits
               00063         extern _PORTAbits
               00064         extern _PORTBbits
               00065         extern _PORTCbits
               00066         extern _PORTDbits
               00067         extern _PORTEbits
               00068         extern _PORTFbits
               00069         extern _PORTGbits
               00070         extern _PORTHbits
               00071         extern _PORTJbits
               00072         extern _LATAbits
               00073         extern _LATBbits
               00074         extern _LATCbits
               00075         extern _LATDbits
               00076         extern _LATEbits
               00077         extern _LATFbits
               00078         extern _LATGbits
               00079         extern _LATHbits
               00080         extern _LATJbits
               00081         extern _DDRAbits
               00082         extern _TRISAbits
               00083         extern _DDRBbits
               00084         extern _TRISBbits
               00085         extern _DDRCbits
               00086         extern _TRISCbits
               00087         extern _DDRDbits
               00088         extern _TRISDbits
               00089         extern _DDREbits
               00090         extern _TRISEbits
               00091         extern _DDRFbits
               00092         extern _TRISFbits
               00093         extern _DDRGbits
               00094         extern _TRISGbits
               00095         extern _DDRHbits
               00096         extern _TRISHbits
               00097         extern _DDRJbits
               00098         extern _TRISJbits
               00099         extern _OSCTUNEbits
               00100         extern _MEMCONbits
               00101         extern _PIE1bits
               00102         extern _PIR1bits
               00103         extern _IPR1bits
               00104         extern _PIE2bits
               00105         extern _PIR2bits
               00106         extern _IPR2bits
               00107         extern _PIE3bits
               00108         extern _PIR3bits
gpasm-0.13.7 beta               Objects/LCDNonBlocking.asm12-10-2017  20:48:42         PAGE  3


LOC  OBJECT CODE     LINE SOURCE TEXT
  VALUE
 
               00109         extern _IPR3bits
               00110         extern _EECON1bits
               00111         extern _RCSTAbits
               00112         extern _RCSTA1bits
               00113         extern _TXSTAbits
               00114         extern _TXSTA1bits
               00115         extern _PSPCONbits
               00116         extern _T3CONbits
               00117         extern _CMCONbits
               00118         extern _CVRCONbits
               00119         extern _ECCP1ASbits
               00120         extern _CCP3CONbits
               00121         extern _ECCP3CONbits
               00122         extern _CCP2CONbits
               00123         extern _ECCP2CONbits
               00124         extern _CCP1CONbits
               00125         extern _ECCP1CONbits
               00126         extern _ADCON2bits
               00127         extern _ADCON1bits
               00128         extern _ADCON0bits
               00129         extern _SSP1CON2bits
               00130         extern _SSPCON2bits
               00131         extern _SSP1CON1bits
               00132         extern _SSPCON1bits
               00133         extern _SSP1STATbits
               00134         extern _SSPSTATbits
               00135         extern _T2CONbits
               00136         extern _T1CONbits
               00137         extern _RCONbits
               00138         extern _WDTCONbits
               00139         extern _ECON1bits
               00140         extern _OSCCONbits
               00141         extern _T0CONbits
               00142         extern _STATUSbits
               00143         extern _INTCON3bits
               00144         extern _INTCON2bits
               00145         extern _INTCONbits
               00146         extern _STKPTRbits
               00147         extern _stdin
               00148         extern _stdout
               00149         extern _AN0String
               00150         extern _AppConfig
               00151         extern _activeUDPSocket
               00152         extern _UDPSocketInfo
               00153         extern _UDPTxCount
               00154         extern _UDPRxCount
               00155         extern _MAADR5
               00156         extern _MAADR6
               00157         extern _MAADR3
               00158         extern _MAADR4
               00159         extern _MAADR1
               00160         extern _MAADR2
               00161         extern _EBSTSD
               00162         extern _EBSTCON
gpasm-0.13.7 beta               Objects/LCDNonBlocking.asm12-10-2017  20:48:42         PAGE  4


LOC  OBJECT CODE     LINE SOURCE TEXT
  VALUE
 
               00163         extern _EBSTCS
               00164         extern _EBSTCSL
               00165         extern _EBSTCSH
               00166         extern _MISTAT
               00167         extern _EFLOCON
               00168         extern _EPAUS
               00169         extern _EPAUSL
               00170         extern _EPAUSH
               00171         extern _MACON1
               00172         extern _MACON2
               00173         extern _MACON3
               00174         extern _MACON4
               00175         extern _MABBIPG
               00176         extern _MAIPG
               00177         extern _MAIPGL
               00178         extern _MAIPGH
               00179         extern _MACLCON1
               00180         extern _MACLCON2
               00181         extern _MAMXFL
               00182         extern _MAMXFLL
               00183         extern _MAMXFLH
               00184         extern _MICON
               00185         extern _MICMD
               00186         extern _MIREGADR
               00187         extern _MIWR
               00188         extern _MIWRL
               00189         extern _MIWRH
               00190         extern _MIRD
               00191         extern _MIRDL
               00192         extern _MIRDH
               00193         extern _EHT0
               00194         extern _EHT1
               00195         extern _EHT2
               00196         extern _EHT3
               00197         extern _EHT4
               00198         extern _EHT5
               00199         extern _EHT6
               00200         extern _EHT7
               00201         extern _EPMM0
               00202         extern _EPMM1
               00203         extern _EPMM2
               00204         extern _EPMM3
               00205         extern _EPMM4
               00206         extern _EPMM5
               00207         extern _EPMM6
               00208         extern _EPMM7
               00209         extern _EPMCS
               00210         extern _EPMCSL
               00211         extern _EPMCSH
               00212         extern _EPMO
               00213         extern _EPMOL
               00214         extern _EPMOH
               00215         extern _EWOLIE
               00216         extern _EWOLIR
gpasm-0.13.7 beta               Objects/LCDNonBlocking.asm12-10-2017  20:48:42         PAGE  5


LOC  OBJECT CODE     LINE SOURCE TEXT
  VALUE
 
               00217         extern _ERXFCON
               00218         extern _EPKTCNT
               00219         extern _EWRPT
               00220         extern _EWRPTL
               00221         extern _EWRPTH
               00222         extern _ETXST
               00223         extern _ETXSTL
               00224         extern _ETXSTH
               00225         extern _ETXND
               00226         extern _ETXNDL
               00227         extern _ETXNDH
               00228         extern _ERXST
               00229         extern _ERXSTL
               00230         extern _ERXSTH
               00231         extern _ERXND
               00232         extern _ERXNDL
               00233         extern _ERXNDH
               00234         extern _ERXRDPT
               00235         extern _ERXRDPTL
               00236         extern _ERXRDPTH
               00237         extern _ERXWRPT
               00238         extern _ERXWRPTL
               00239         extern _ERXWRPTH
               00240         extern _EDMAST
               00241         extern _EDMASTL
               00242         extern _EDMASTH
               00243         extern _EDMAND
               00244         extern _EDMANDL
               00245         extern _EDMANDH
               00246         extern _EDMADST
               00247         extern _EDMADSTL
               00248         extern _EDMADSTH
               00249         extern _EDMACS
               00250         extern _EDMACSL
               00251         extern _EDMACSH
               00252         extern _EIE
               00253         extern _ESTAT
               00254         extern _ECON2
               00255         extern _EIR
               00256         extern _EDATA
               00257         extern _SSP2CON2
               00258         extern _SSP2CON1
               00259         extern _SSP2STAT
               00260         extern _SSP2ADD
               00261         extern _SSP2BUF
               00262         extern _ECCP2DEL
               00263         extern _ECCP2AS
               00264         extern _ECCP3DEL
               00265         extern _ECCP3AS
               00266         extern _RCSTA2
               00267         extern _TXSTA2
               00268         extern _TXREG2
               00269         extern _RCREG2
               00270         extern _SPBRG2
gpasm-0.13.7 beta               Objects/LCDNonBlocking.asm12-10-2017  20:48:42         PAGE  6


LOC  OBJECT CODE     LINE SOURCE TEXT
  VALUE
 
               00271         extern _CCP5CON
               00272         extern _CCPR5
               00273         extern _CCPR5L
               00274         extern _CCPR5H
               00275         extern _CCP4CON
               00276         extern _CCPR4
               00277         extern _CCPR4L
               00278         extern _CCPR4H
               00279         extern _T4CON
               00280         extern _PR4
               00281         extern _TMR4
               00282         extern _ECCP1DEL
               00283         extern _ERDPT
               00284         extern _ERDPTL
               00285         extern _ERDPTH
               00286         extern _BAUDCON2
               00287         extern _BAUDCTL2
               00288         extern _SPBRGH2
               00289         extern _BAUDCON
               00290         extern _BAUDCON1
               00291         extern _BAUDCTL
               00292         extern _BAUDCTL1
               00293         extern _SPBRGH
               00294         extern _SPBRGH1
               00295         extern _PORTA
               00296         extern _PORTB
               00297         extern _PORTC
               00298         extern _PORTD
               00299         extern _PORTE
               00300         extern _PORTF
               00301         extern _PORTG
               00302         extern _PORTH
               00303         extern _PORTJ
               00304         extern _LATA
               00305         extern _LATB
               00306         extern _LATC
               00307         extern _LATD
               00308         extern _LATE
               00309         extern _LATF
               00310         extern _LATG
               00311         extern _LATH
               00312         extern _LATJ
               00313         extern _DDRA
               00314         extern _TRISA
               00315         extern _DDRB
               00316         extern _TRISB
               00317         extern _DDRC
               00318         extern _TRISC
               00319         extern _DDRD
               00320         extern _TRISD
               00321         extern _DDRE
               00322         extern _TRISE
               00323         extern _DDRF
               00324         extern _TRISF
gpasm-0.13.7 beta               Objects/LCDNonBlocking.asm12-10-2017  20:48:42         PAGE  7


LOC  OBJECT CODE     LINE SOURCE TEXT
  VALUE
 
               00325         extern _DDRG
               00326         extern _TRISG
               00327         extern _DDRH
               00328         extern _TRISH
               00329         extern _DDRJ
               00330         extern _TRISJ
               00331         extern _OSCTUNE
               00332         extern _MEMCON
               00333         extern _PIE1
               00334         extern _PIR1
               00335         extern _IPR1
               00336         extern _PIE2
               00337         extern _PIR2
               00338         extern _IPR2
               00339         extern _PIE3
               00340         extern _PIR3
               00341         extern _IPR3
               00342         extern _EECON1
               00343         extern _EECON2
               00344         extern _RCSTA
               00345         extern _RCSTA1
               00346         extern _TXSTA
               00347         extern _TXSTA1
               00348         extern _TXREG
               00349         extern _TXREG1
               00350         extern _RCREG
               00351         extern _RCREG1
               00352         extern _SPBRG
               00353         extern _SPBRG1
               00354         extern _PSPCON
               00355         extern _T3CON
               00356         extern _TMR3L
               00357         extern _TMR3H
               00358         extern _CMCON
               00359         extern _CVRCON
               00360         extern _ECCP1AS
               00361         extern _CCP3CON
               00362         extern _ECCP3CON
               00363         extern _CCPR3
               00364         extern _CCPR3L
               00365         extern _CCPR3H
               00366         extern _CCP2CON
               00367         extern _ECCP2CON
               00368         extern _CCPR2
               00369         extern _CCPR2L
               00370         extern _CCPR2H
               00371         extern _CCP1CON
               00372         extern _ECCP1CON
               00373         extern _CCPR1
               00374         extern _CCPR1L
               00375         extern _CCPR1H
               00376         extern _ADCON2
               00377         extern _ADCON1
               00378         extern _ADCON0
gpasm-0.13.7 beta               Objects/LCDNonBlocking.asm12-10-2017  20:48:42         PAGE  8


LOC  OBJECT CODE     LINE SOURCE TEXT
  VALUE
 
               00379         extern _ADRES
               00380         extern _ADRESL
               00381         extern _ADRESH
               00382         extern _SSP1CON2
               00383         extern _SSPCON2
               00384         extern _SSP1CON1
               00385         extern _SSPCON1
               00386         extern _SSP1STAT
               00387         extern _SSPSTAT
               00388         extern _SSP1ADD
               00389         extern _SSPADD
               00390         extern _SSP1BUF
               00391         extern _SSPBUF
               00392         extern _T2CON
               00393         extern _PR2
               00394         extern _TMR2
               00395         extern _T1CON
               00396         extern _TMR1L
               00397         extern _TMR1H
               00398         extern _RCON
               00399         extern _WDTCON
               00400         extern _ECON1
               00401         extern _OSCCON
               00402         extern _T0CON
               00403         extern _TMR0L
               00404         extern _TMR0H
               00405         extern _STATUS
               00406         extern _FSR2L
               00407         extern _FSR2H
               00408         extern _PLUSW2
               00409         extern _PREINC2
               00410         extern _POSTDEC2
               00411         extern _POSTINC2
               00412         extern _INDF2
               00413         extern _BSR
               00414         extern _FSR1L
               00415         extern _FSR1H
               00416         extern _PLUSW1
               00417         extern _PREINC1
               00418         extern _POSTDEC1
               00419         extern _POSTINC1
               00420         extern _INDF1
               00421         extern _WREG
               00422         extern _FSR0L
               00423         extern _FSR0H
               00424         extern _PLUSW0
               00425         extern _PREINC0
               00426         extern _POSTDEC0
               00427         extern _POSTINC0
               00428         extern _INDF0
               00429         extern _INTCON3
               00430         extern _INTCON2
               00431         extern _INTCON
               00432         extern _PROD
gpasm-0.13.7 beta               Objects/LCDNonBlocking.asm12-10-2017  20:48:42         PAGE  9


LOC  OBJECT CODE     LINE SOURCE TEXT
  VALUE
 
               00433         extern _PRODL
               00434         extern _PRODH
               00435         extern _TABLAT
               00436         extern _TBLPTR
               00437         extern _TBLPTRL
               00438         extern _TBLPTRH
               00439         extern _TBLPTRU
               00440         extern _PC
               00441         extern _PCL
               00442         extern _PCLATH
               00443         extern _PCLATU
               00444         extern _STKPTR
               00445         extern _TOS
               00446         extern _TOSL
               00447         extern _TOSH
               00448         extern _TOSU
               00449         extern _memset
               00450         extern _LCDListInit
               00451         extern _LCDListIsEmpty
               00452         extern _LCDListPush
               00453         extern _LCDListPop
               00454 ;--------------------------------------------------------
               00455 ;       Equates to used internal registers
               00456 ;--------------------------------------------------------
  00000FD8     00457 STATUS  equ     0xfd8
  00000FF9     00458 PCL     equ     0xff9
  00000FFA     00459 PCLATH  equ     0xffa
  00000FFB     00460 PCLATU  equ     0xffb
  00000FE8     00461 WREG    equ     0xfe8
  00000FE9     00462 FSR0L   equ     0xfe9
  00000FEA     00463 FSR0H   equ     0xfea
  00000FE1     00464 FSR1L   equ     0xfe1
  00000FD9     00465 FSR2L   equ     0xfd9
  00000FEF     00466 INDF0   equ     0xfef
  00000FE5     00467 POSTDEC1        equ     0xfe5
  00000FE4     00468 PREINC1 equ     0xfe4
  00000FDB     00469 PLUSW2  equ     0xfdb
  00000FF4     00470 PRODH   equ     0xff4
               00471 
               00472 
               00473 ; Internal registers
               00474 .registers      udata_ovr       0x0000
               00475 r0x00   res     1
               00476 r0x01   res     1
               00477 r0x02   res     1
               00478 r0x03   res     1
               00479 r0x04   res     1
               00480 r0x05   res     1
               00481 r0x06   res     1
               00482 r0x07   res     1
               00483 r0x08   res     1
               00484 r0x09   res     1
               00485 
               00486 udata_LCDNonBlocking_0  udata
gpasm-0.13.7 beta               Objects/LCDNonBlocking.asm12-10-2017  20:48:42         PAGE 10


LOC  OBJECT CODE     LINE SOURCE TEXT
  VALUE
 
               00487 _LCDi   res     1
               00488 
               00489 udata_LCDNonBlocking_1  udata
               00490 _LCDj   res     1
               00491 
               00492 udata_LCDNonBlocking_2  udata
               00493 _st_init        res     1
               00494 
               00495 udata_LCDNonBlocking_3  udata
               00496 _st_update      res     1
               00497 
               00498 udata_LCDNonBlocking_4  udata
               00499 _st_erase       res     1
               00500 
               00501 udata_LCDNonBlocking_5  udata
               00502 _LCDWaiting     res     1
               00503 
               00504 udata_LCDNonBlocking_6  udata
               00505 _LCDOpInProgress        res     1
               00506 
               00507 udata_LCDNonBlocking_7  udata
               00508 _LCDCurrentOrder        res     1
               00509 
               00510 udata_LCDNonBlocking_8  udata
               00511 _LCDText        res     33
               00512 
               00513 udata_LCDNonBlocking_9  udata
               00514 _LCDCurrentText res     33
               00515 
               00516 ;--------------------------------------------------------
               00517 ; global & static initialisations
               00518 ;--------------------------------------------------------
               00519 ; I code from now on!
               00520 ; ; Starting pCode block
               00521 S_LCDNonBlocking__LCDUpdate     code
0000 00522 _LCDUpdate:
               00523 ;       .line   588; TCPIP_Stack/LCDNonBlocking.c       void LCDUpdate(void)
0000 CFD9 FFE5 00524         MOVFF   FSR2L, POSTDEC1
0004 CFE1 FFD9 00525         MOVFF   FSR1L, FSR2L
               00526 ;       .line   590; TCPIP_Stack/LCDNonBlocking.c       LCDListPush(3, "");
0008 0E00      00527         MOVLW   UPPER(__str_0)
000A 6EE5      00528         MOVWF   POSTDEC1
000C 0E00      00529         MOVLW   HIGH(__str_0)
000E 6EE5      00530         MOVWF   POSTDEC1
0010 0E00      00531         MOVLW   LOW(__str_0)
0012 6EE5      00532         MOVWF   POSTDEC1
0014 0E03      00533         MOVLW   0x03
0016 6EE5      00534         MOVWF   POSTDEC1
0018 EC00 F000 00535         CALL    _LCDListPush
001C 0E04      00536         MOVLW   0x04
001E 26E1      00537         ADDWF   FSR1L, F
0020 CFE4 FFD9 00538         MOVFF   PREINC1, FSR2L
0024 0012      00539         RETURN  
               00540 
gpasm-0.13.7 beta               Objects/LCDNonBlocking.asm12-10-2017  20:48:42         PAGE 11


LOC  OBJECT CODE     LINE SOURCE TEXT
  VALUE
 
               00541 ; ; Starting pCode block
               00542 S_LCDNonBlocking__LCDErase      code
0000 00543 _LCDErase:
               00544 ;       .line   565; TCPIP_Stack/LCDNonBlocking.c       void LCDErase(void)
0000 CFD9 FFE5 00545         MOVFF   FSR2L, POSTDEC1
0004 CFE1 FFD9 00546         MOVFF   FSR1L, FSR2L
               00547 ;       .line   567; TCPIP_Stack/LCDNonBlocking.c       LCDListPush(2, "");
0008 0E00      00548         MOVLW   UPPER(__str_0)
000A 6EE5      00549         MOVWF   POSTDEC1
000C 0E00      00550         MOVLW   HIGH(__str_0)
000E 6EE5      00551         MOVWF   POSTDEC1
0010 0E00      00552         MOVLW   LOW(__str_0)
0012 6EE5      00553         MOVWF   POSTDEC1
0014 0E02      00554         MOVLW   0x02
0016 6EE5      00555         MOVWF   POSTDEC1
0018 EC00 F000 00556         CALL    _LCDListPush
001C 0E04      00557         MOVLW   0x04
001E 26E1      00558         ADDWF   FSR1L, F
0020 CFE4 FFD9 00559         MOVFF   PREINC1, FSR2L
0024 0012      00560         RETURN  
               00561 
               00562 ; ; Starting pCode block
               00563 S_LCDNonBlocking__LCDInit       code
0000 00564 _LCDInit:
               00565 ;       .line   545; TCPIP_Stack/LCDNonBlocking.c       void LCDInit(void)
0000 CFD9 FFE5 00566         MOVFF   FSR2L, POSTDEC1
0004 CFE1 FFD9 00567         MOVFF   FSR1L, FSR2L
               00568 ;       .line   547; TCPIP_Stack/LCDNonBlocking.c       LCDListPush(1, "");
0008 0E00      00569         MOVLW   UPPER(__str_0)
000A 6EE5      00570         MOVWF   POSTDEC1
000C 0E00      00571         MOVLW   HIGH(__str_0)
000E 6EE5      00572         MOVWF   POSTDEC1
0010 0E00      00573         MOVLW   LOW(__str_0)
0012 6EE5      00574         MOVWF   POSTDEC1
0014 0E01      00575         MOVLW   0x01
0016 6EE5      00576         MOVWF   POSTDEC1
0018 EC00 F000 00577         CALL    _LCDListPush
001C 0E04      00578         MOVLW   0x04
001E 26E1      00579         ADDWF   FSR1L, F
0020 CFE4 FFD9 00580         MOVFF   PREINC1, FSR2L
0024 0012      00581         RETURN  
               00582 
               00583 ; ; Starting pCode block
               00584 S_LCDNonBlocking__LCDTask       code
0000 00585 _LCDTask:
               00586 ;       .line   489; TCPIP_Stack/LCDNonBlocking.c       void LCDTask(void)
0000 CFD9 FFE5 00587         MOVFF   FSR2L, POSTDEC1
0004 CFE1 FFD9 00588         MOVFF   FSR1L, FSR2L
0008 C000 FFE5 00589         MOVFF   r0x00, POSTDEC1
000C C000 FFE5 00590         MOVFF   r0x01, POSTDEC1
0010 C000 FFE5 00591         MOVFF   r0x02, POSTDEC1
0014 C000 FFE5 00592         MOVFF   r0x03, POSTDEC1
0018 C000 FFE5 00593         MOVFF   r0x04, POSTDEC1
001C C000 FFE5 00594         MOVFF   r0x05, POSTDEC1
gpasm-0.13.7 beta               Objects/LCDNonBlocking.asm12-10-2017  20:48:42         PAGE 12


LOC  OBJECT CODE     LINE SOURCE TEXT
  VALUE
 
               00595 ;       .line   491; TCPIP_Stack/LCDNonBlocking.c       if (PIR1bits.TMR1IF && LCDWaiting)              // Time expired
0020 A000      00596         BTFSS   _PIR1bits, 0
0022 D000      00597         BRA     _00241_DS_
0024 0000      00598         BANKSEL _LCDWaiting
0026 5100      00599         MOVF    _LCDWaiting, W, B
0028 E000      00600         BZ      _00241_DS_
002A 0000      00601         BANKSEL _LCDWaiting
               00602 ;       .line   493; TCPIP_Stack/LCDNonBlocking.c       LCDWaiting = 0;
002C 6B00      00603         CLRF    _LCDWaiting, B
               00604 ;       .line   494; TCPIP_Stack/LCDNonBlocking.c       T1CONbits.TMR1ON = 0;
002E 9000      00605         BCF     _T1CONbits, 0
               00606 ;       .line   495; TCPIP_Stack/LCDNonBlocking.c       PIR1bits.TMR1IF = 0;
0030 9000      00607         BCF     _PIR1bits, 0
0032 00608 _00241_DS_:
0032 0000      00609         BANKSEL _LCDOpInProgress
               00610 ;       .line   497; TCPIP_Stack/LCDNonBlocking.c       if (!LCDOpInProgress)                           // No operations being executed
0034 5100      00611         MOVF    _LCDOpInProgress, W, B
0036 E100      00612         BNZ     _00246_DS_
               00613 ;       .line   499; TCPIP_Stack/LCDNonBlocking.c       if (!LCDListIsEmpty())                          // The list contains at least one operation
0038 EC00 F000 00614         CALL    _LCDListIsEmpty
003C 6E00      00615         MOVWF   r0x00
003E 5000      00616         MOVF    r0x00, W
0040 E100      00617         BNZ     _00246_DS_
               00618 ;       .line   501; TCPIP_Stack/LCDNonBlocking.c       LCDListPop(&LCDCurrentOrder, LCDCurrentText);                   // Retrieve the operation to execute
0042 0E00      00619         MOVLW   HIGH(_LCDCurrentOrder)
0044 6E00      00620         MOVWF   r0x01
0046 0E00      00621         MOVLW   LOW(_LCDCurrentOrder)
0048 6E00      00622         MOVWF   r0x00
004A 0E80      00623         MOVLW   0x80
004C 6E00      00624         MOVWF   r0x02
004E 0E00      00625         MOVLW   HIGH(_LCDCurrentText)
0050 6E00      00626         MOVWF   r0x04
0052 0E00      00627         MOVLW   LOW(_LCDCurrentText)
0054 6E00      00628         MOVWF   r0x03
0056 0E80      00629         MOVLW   0x80
0058 6E00      00630         MOVWF   r0x05
005A 5000      00631         MOVF    r0x05, W
005C 6EE5      00632         MOVWF   POSTDEC1
005E 5000      00633         MOVF    r0x04, W
0060 6EE5      00634         MOVWF   POSTDEC1
0062 5000      00635         MOVF    r0x03, W
0064 6EE5      00636         MOVWF   POSTDEC1
0066 5000      00637         MOVF    r0x02, W
0068 6EE5      00638         MOVWF   POSTDEC1
006A 5000      00639         MOVF    r0x01, W
006C 6EE5      00640         MOVWF   POSTDEC1
006E 5000      00641         MOVF    r0x00, W
0070 6EE5      00642         MOVWF   POSTDEC1
0072 EC00 F000 00643         CALL    _LCDListPop
0076 0E06      00644         MOVLW   0x06
0078 26E1      00645         ADDWF   FSR1L, F
               00646 ;       .line   502; TCPIP_Stack/LCDNonBlocking.c       LCDOpInProgress = 1;            // Set the execution flag
007A 0E01      00647         MOVLW   0x01
007C 0000      00648         BANKSEL _LCDOpInProgress
gpasm-0.13.7 beta               Objects/LCDNonBlocking.asm12-10-2017  20:48:42         PAGE 13


LOC  OBJECT CODE     LINE SOURCE TEXT
  VALUE
 
007E 6F00      00649         MOVWF   _LCDOpInProgress, B
0080 00650 _00246_DS_:
0080 0000      00651         BANKSEL _LCDWaiting
               00652 ;       .line   505; TCPIP_Stack/LCDNonBlocking.c       if (!LCDWaiting && LCDOpInProgress)                             // Not waiting for timers
0082 5100      00653         MOVF    _LCDWaiting, W, B
0084 A4D8      00654         BTFSS   STATUS, 2
0086 D000      00655         BRA     _00255_DS_
0088 0000      00656         BANKSEL _LCDOpInProgress
008A 5100      00657         MOVF    _LCDOpInProgress, W, B
008C E000      00658         BZ      _00255_DS_
008E 0000      00659         BANKSEL _LCDCurrentOrder
               00660 ;       .line   507; TCPIP_Stack/LCDNonBlocking.c       switch (LCDCurrentOrder)
0090 5100      00661         MOVF    _LCDCurrentOrder, W, B
0092 0F80      00662         ADDLW   0x80
0094 0F7F      00663         ADDLW   0x7f
0096 E300      00664         BNC     _00255_DS_
0098 0000      00665         BANKSEL _LCDCurrentOrder
009A 5100      00666         MOVF    _LCDCurrentOrder, W, B
009C 0F80      00667         ADDLW   0x80
009E 0F7C      00668         ADDLW   0x7c
00A0 E200      00669         BC      _00255_DS_
00A2 0000      00670         BANKSEL _LCDCurrentOrder
00A4 0500      00671         DECF    _LCDCurrentOrder, W, B
00A6 6E00      00672         MOVWF   r0x00
00A8 C000 FFE5 00673         MOVFF   r0x06, POSTDEC1
00AC C000 FFE5 00674         MOVFF   r0x07, POSTDEC1
00B0 6A00      00675         CLRF    r0x07
00B2 3400      00676         RLCF    r0x00, W
00B4 3600      00677         RLCF    r0x07, F
00B6 34E8      00678         RLCF    WREG, W
00B8 3600      00679         RLCF    r0x07, F
00BA 0BFC      00680         ANDLW   0xfc
00BC 6E00      00681         MOVWF   r0x06
00BE 0E00      00682         MOVLW   UPPER(_00267_DS_)
00C0 6EFB      00683         MOVWF   PCLATU
00C2 0E00      00684         MOVLW   HIGH(_00267_DS_)
00C4 6EFA      00685         MOVWF   PCLATH
00C6 0E00      00686         MOVLW   LOW(_00267_DS_)
00C8 2600      00687         ADDWF   r0x06, F
00CA 5000      00688         MOVF    r0x07, W
00CC 22FA      00689         ADDWFC  PCLATH, F
00CE B0D8      00690         BTFSC   STATUS, 0
00D0 2AFB      00691         INCF    PCLATU, F
00D2 5000      00692         MOVF    r0x06, W
00D4 CFE4 F000 00693         MOVFF   PREINC1, r0x07
00D8 CFE4 F000 00694         MOVFF   PREINC1, r0x06
00DC 6EF9      00695         MOVWF   PCL
00DE 00696 _00267_DS_:
00DE EF00 F000 00697         GOTO    _00247_DS_
00E2 EF00 F000 00698         GOTO    _00248_DS_
00E6 EF00 F000 00699         GOTO    _00249_DS_
00EA 00700 _00247_DS_:
               00701 ;       .line   510; TCPIP_Stack/LCDNonBlocking.c       LCDInitExec();
00EA EC00 F000 00702         CALL    _LCDInitExec
gpasm-0.13.7 beta               Objects/LCDNonBlocking.asm12-10-2017  20:48:42         PAGE 14


LOC  OBJECT CODE     LINE SOURCE TEXT
  VALUE
 
               00703 ;       .line   511; TCPIP_Stack/LCDNonBlocking.c       break;
00EE D000      00704         BRA     _00255_DS_
00F0 00705 _00248_DS_:
               00706 ;       .line   514; TCPIP_Stack/LCDNonBlocking.c       LCDEraseExec();
00F0 EC00 F000 00707         CALL    _LCDEraseExec
               00708 ;       .line   515; TCPIP_Stack/LCDNonBlocking.c       break;
00F4 D000      00709         BRA     _00255_DS_
00F6 00710 _00249_DS_:
               00711 ;       .line   518; TCPIP_Stack/LCDNonBlocking.c       LCDUpdateExec();
00F6 EC00 F000 00712         CALL    _LCDUpdateExec
00FA 00713 _00255_DS_:
               00714 ;       .line   524; TCPIP_Stack/LCDNonBlocking.c       }
00FA CFE4 F000 00715         MOVFF   PREINC1, r0x05
00FE CFE4 F000 00716         MOVFF   PREINC1, r0x04
0102 CFE4 F000 00717         MOVFF   PREINC1, r0x03
0106 CFE4 F000 00718         MOVFF   PREINC1, r0x02
010A CFE4 F000 00719         MOVFF   PREINC1, r0x01
010E CFE4 F000 00720         MOVFF   PREINC1, r0x00
0112 CFE4 FFD9 00721         MOVFF   PREINC1, FSR2L
0116 0012      00722         RETURN  
               00723 
               00724 ; ; Starting pCode block
               00725 S_LCDNonBlocking__LCDTaskInit   code
0000 00726 _LCDTaskInit:
               00727 ;       .line   465; TCPIP_Stack/LCDNonBlocking.c       void LCDTaskInit(void)
0000 CFD9 FFE5 00728         MOVFF   FSR2L, POSTDEC1
0004 CFE1 FFD9 00729         MOVFF   FSR1L, FSR2L
0008 0000      00730         BANKSEL _st_init
               00731 ;       .line   468; TCPIP_Stack/LCDNonBlocking.c       st_init   = LCD_RESET;
000A 6B00      00732         CLRF    _st_init, B
000C 0000      00733         BANKSEL _st_update
               00734 ;       .line   469; TCPIP_Stack/LCDNonBlocking.c       st_update = LCD_GOTOFIRSTLINE;
000E 6B00      00735         CLRF    _st_update, B
0010 0000      00736         BANKSEL _st_erase
               00737 ;       .line   470; TCPIP_Stack/LCDNonBlocking.c       st_erase  = LCD_CLEARDISPLAY;
0012 6B00      00738         CLRF    _st_erase, B
0014 0000      00739         BANKSEL _LCDWaiting
               00740 ;       .line   472; TCPIP_Stack/LCDNonBlocking.c       LCDWaiting = 0;
0016 6B00      00741         CLRF    _LCDWaiting, B
0018 0000      00742         BANKSEL _LCDOpInProgress
               00743 ;       .line   473; TCPIP_Stack/LCDNonBlocking.c       LCDOpInProgress = 0;
001A 6B00      00744         CLRF    _LCDOpInProgress, B
001C 0000      00745         BANKSEL _LCDi
               00746 ;       .line   474; TCPIP_Stack/LCDNonBlocking.c       LCDi = 0;
001E 6B00      00747         CLRF    _LCDi, B
0020 0000      00748         BANKSEL _LCDj
               00749 ;       .line   475; TCPIP_Stack/LCDNonBlocking.c       LCDj = 0;
0022 6B00      00750         CLRF    _LCDj, B
               00751 ;       .line   477; TCPIP_Stack/LCDNonBlocking.c       LCDListInit();
0024 EC00 F000 00752         CALL    _LCDListInit
               00753 ;       .line   479; TCPIP_Stack/LCDNonBlocking.c       T1CONbits.TMR1ON        =       0;              // disable timer1
0028 9000      00754         BCF     _T1CONbits, 0
               00755 ;       .line   480; TCPIP_Stack/LCDNonBlocking.c       T1CONbits.RD16          =       1;              // use timer1 16-bit counter
002A 8E00      00756         BSF     _T1CONbits, 7
gpasm-0.13.7 beta               Objects/LCDNonBlocking.asm12-10-2017  20:48:42         PAGE 15


LOC  OBJECT CODE     LINE SOURCE TEXT
  VALUE
 
               00757 ;       .line   481; TCPIP_Stack/LCDNonBlocking.c       T1CONbits.T1CKPS0       =       0;              // prescaler set to 1:1
002C 9800      00758         BCF     _T1CONbits, 4
               00759 ;       .line   482; TCPIP_Stack/LCDNonBlocking.c       T1CONbits.T1CKPS1       =       0;
002E 9A00      00760         BCF     _T1CONbits, 5
               00761 ;       .line   483; TCPIP_Stack/LCDNonBlocking.c       T1CONbits.T1OSCEN       =       1;              // timer1 oscillator enable
0030 8600      00762         BSF     _T1CONbits, 3
               00763 ;       .line   484; TCPIP_Stack/LCDNonBlocking.c       T1CONbits.TMR1CS        =       1;              // external clock selected
0032 8200      00764         BSF     _T1CONbits, 1
               00765 ;       .line   485; TCPIP_Stack/LCDNonBlocking.c       PIR1bits.TMR1IF         =       0;              // clear timer1 overflow bit
0034 9000      00766         BCF     _PIR1bits, 0
0036 CFE4 FFD9 00767         MOVFF   PREINC1, FSR2L
003A 0012      00768         RETURN  
               00769 
               00770 ; ; Starting pCode block
               00771 S_LCDNonBlocking__LCDUpdateExec code
0000 00772 _LCDUpdateExec:
               00773 ;       .line   366; TCPIP_Stack/LCDNonBlocking.c       static void LCDUpdateExec(void)
0000 CFD9 FFE5 00774         MOVFF   FSR2L, POSTDEC1
0004 CFE1 FFD9 00775         MOVFF   FSR1L, FSR2L
0008 C000 FFE5 00776         MOVFF   r0x00, POSTDEC1
000C C000 FFE5 00777         MOVFF   r0x01, POSTDEC1
0010 C000 FFE5 00778         MOVFF   r0x02, POSTDEC1
               00779 ;       .line   368; TCPIP_Stack/LCDNonBlocking.c       switch(st_update)
0014 0E05      00780         MOVLW   0x05
0016 0000      00781         BANKSEL _st_update
0018 5D00      00782         SUBWF   _st_update, W, B
001A B0D8      00783         BTFSC   STATUS, 0
001C D000      00784         BRA     _00214_DS_
001E C000 FFE5 00785         MOVFF   r0x03, POSTDEC1
0022 C000 FFE5 00786         MOVFF   r0x04, POSTDEC1
0026 6A00      00787         CLRF    r0x04
0028 0000      00788         BANKSEL _st_update
002A 3500      00789         RLCF    _st_update, W, B
002C 3600      00790         RLCF    r0x04, F
002E 34E8      00791         RLCF    WREG, W
0030 3600      00792         RLCF    r0x04, F
0032 0BFC      00793         ANDLW   0xfc
0034 6E00      00794         MOVWF   r0x03
0036 0E00      00795         MOVLW   UPPER(_00226_DS_)
0038 6EFB      00796         MOVWF   PCLATU
003A 0E00      00797         MOVLW   HIGH(_00226_DS_)
003C 6EFA      00798         MOVWF   PCLATH
003E 0E00      00799         MOVLW   LOW(_00226_DS_)
0040 2600      00800         ADDWF   r0x03, F
0042 5000      00801         MOVF    r0x04, W
0044 22FA      00802         ADDWFC  PCLATH, F
0046 B0D8      00803         BTFSC   STATUS, 0
0048 2AFB      00804         INCF    PCLATU, F
004A 5000      00805         MOVF    r0x03, W
004C CFE4 F000 00806         MOVFF   PREINC1, r0x04
0050 CFE4 F000 00807         MOVFF   PREINC1, r0x03
0054 6EF9      00808         MOVWF   PCL
0056 00809 _00226_DS_:
0056 EF00 F000 00810         GOTO    _00191_DS_
gpasm-0.13.7 beta               Objects/LCDNonBlocking.asm12-10-2017  20:48:42         PAGE 16


LOC  OBJECT CODE     LINE SOURCE TEXT
  VALUE
 
005A EF00 F000 00811         GOTO    _00192_DS_
005E EF00 F000 00812         GOTO    _00197_DS_
0062 EF00 F000 00813         GOTO    _00198_DS_
0066 EF00 F000 00814         GOTO    _00203_DS_
006A 00815 _00191_DS_:
               00816 ;       .line   372; TCPIP_Stack/LCDNonBlocking.c       LCDWrite(0, 0x02);
006A 0E02      00817         MOVLW   0x02
006C 6EE5      00818         MOVWF   POSTDEC1
006E 0E00      00819         MOVLW   0x00
0070 6EE5      00820         MOVWF   POSTDEC1
0072 EC00 F000 00821         CALL    _LCDWrite
0076 0E02      00822         MOVLW   0x02
0078 26E1      00823         ADDWF   FSR1L, F
               00824 ;       .line   374; TCPIP_Stack/LCDNonBlocking.c       LCDWaiting = 1;
007A 0E01      00825         MOVLW   0x01
007C 0000      00826         BANKSEL _LCDWaiting
007E 6F00      00827         MOVWF   _LCDWaiting, B
               00828 ;       .line   375; TCPIP_Stack/LCDNonBlocking.c       TMR1L                   =       (0x10000 - 66)  & 0xff;
0080 0EBE      00829         MOVLW   0xbe
0082 6E00      00830         MOVWF   _TMR1L
               00831 ;       .line   376; TCPIP_Stack/LCDNonBlocking.c       TMR1H                   =       (0x10000 - 66)  >> 8;
0084 0EFF      00832         MOVLW   0xff
0086 6E00      00833         MOVWF   _TMR1H
               00834 ;       .line   377; TCPIP_Stack/LCDNonBlocking.c       T1CONbits.TMR1ON        =       1;
0088 8000      00835         BSF     _T1CONbits, 0
               00836 ;       .line   378; TCPIP_Stack/LCDNonBlocking.c       st_update = LCD_OUTFIRSTLINE;
008A 0E01      00837         MOVLW   0x01
008C 0000      00838         BANKSEL _st_update
008E 6F00      00839         MOVWF   _st_update, B
0090 0000      00840         BANKSEL _LCDi
               00841 ;       .line   379; TCPIP_Stack/LCDNonBlocking.c       LCDi = 0;
0092 6B00      00842         CLRF    _LCDi, B
               00843 ;       .line   380; TCPIP_Stack/LCDNonBlocking.c       break;
0094 D000      00844         BRA     _00214_DS_
0096 00845 _00192_DS_:
               00846 ;       .line   385; TCPIP_Stack/LCDNonBlocking.c       if(LCDText[LCDi] == 0u)
0096 0E00      00847         MOVLW   LOW(_LCDText)
0098 0000      00848         BANKSEL _LCDi
009A 2500      00849         ADDWF   _LCDi, W, B
009C 6E00      00850         MOVWF   r0x00
009E 6A00      00851         CLRF    r0x01
00A0 0E00      00852         MOVLW   HIGH(_LCDText)
00A2 2200      00853         ADDWFC  r0x01, F
00A4 C000 FFE9 00854         MOVFF   r0x00, FSR0L
00A8 C000 FFEA 00855         MOVFF   r0x01, FSR0H
00AC CFEF F000 00856         MOVFF   INDF0, r0x00
00B0 5000      00857         MOVF    r0x00, W
00B2 E100      00858         BNZ     _00194_DS_
               00859 ;       .line   387; TCPIP_Stack/LCDNonBlocking.c       for(LCDj=LCDi; LCDj < 16u; LCDj++)
00B4 C000 F000 00860         MOVFF   _LCDi, _LCDj
00B8 00861 _00206_DS_:
00B8 C000 F000 00862         MOVFF   _LCDj, r0x01
00BC 6A00      00863         CLRF    r0x02
00BE 0E00      00864         MOVLW   0x00
gpasm-0.13.7 beta               Objects/LCDNonBlocking.asm12-10-2017  20:48:42         PAGE 17


LOC  OBJECT CODE     LINE SOURCE TEXT
  VALUE
 
00C0 5C00      00865         SUBWF   r0x02, W
00C2 E100      00866         BNZ     _00227_DS_
00C4 0E10      00867         MOVLW   0x10
00C6 5C00      00868         SUBWF   r0x01, W
00C8 00869 _00227_DS_:
00C8 E200      00870         BC      _00194_DS_
               00871 ;       .line   389; TCPIP_Stack/LCDNonBlocking.c       LCDText[LCDj] = ' ';
00CA 0E00      00872         MOVLW   LOW(_LCDText)
00CC 0000      00873         BANKSEL _LCDj
00CE 2500      00874         ADDWF   _LCDj, W, B
00D0 6E00      00875         MOVWF   r0x01
00D2 6A00      00876         CLRF    r0x02
00D4 0E00      00877         MOVLW   HIGH(_LCDText)
00D6 2200      00878         ADDWFC  r0x02, F
00D8 C000 FFE9 00879         MOVFF   r0x01, FSR0L
00DC C000 FFEA 00880         MOVFF   r0x02, FSR0H
00E0 0E20      00881         MOVLW   0x20
00E2 6EEF      00882         MOVWF   INDF0
00E4 0000      00883         BANKSEL _LCDj
               00884 ;       .line   387; TCPIP_Stack/LCDNonBlocking.c       for(LCDj=LCDi; LCDj < 16u; LCDj++)
00E6 2B00      00885         INCF    _LCDj, F, B
00E8 D000      00886         BRA     _00206_DS_
00EA 00887 _00194_DS_:
               00888 ;       .line   392; TCPIP_Stack/LCDNonBlocking.c       LCDWrite(1, LCDText[LCDi]);
00EA 5000      00889         MOVF    r0x00, W
00EC 6EE5      00890         MOVWF   POSTDEC1
00EE 0E01      00891         MOVLW   0x01
00F0 6EE5      00892         MOVWF   POSTDEC1
00F2 EC00 F000 00893         CALL    _LCDWrite
00F6 0E02      00894         MOVLW   0x02
00F8 26E1      00895         ADDWF   FSR1L, F
               00896 ;       .line   394; TCPIP_Stack/LCDNonBlocking.c       if (LCDi >= 16u)
00FA C000 F000 00897         MOVFF   _LCDi, r0x00
00FE 6A00      00898         CLRF    r0x01
0100 0E00      00899         MOVLW   0x00
0102 5C00      00900         SUBWF   r0x01, W
0104 E100      00901         BNZ     _00228_DS_
0106 0E10      00902         MOVLW   0x10
0108 5C00      00903         SUBWF   r0x00, W
010A 00904 _00228_DS_:
010A E300      00905         BNC     _00196_DS_
               00906 ;       .line   395; TCPIP_Stack/LCDNonBlocking.c       st_update = LCD_GOTOSECONDLINE;
010C 0E02      00907         MOVLW   0x02
010E 0000      00908         BANKSEL _st_update
0110 6F00      00909         MOVWF   _st_update, B
0112 00910 _00196_DS_:
0112 0000      00911         BANKSEL _LCDi
               00912 ;       .line   396; TCPIP_Stack/LCDNonBlocking.c       LCDi++;
0114 2B00      00913         INCF    _LCDi, F, B
               00914 ;       .line   398; TCPIP_Stack/LCDNonBlocking.c       LCDWaiting = 1;
0116 0E01      00915         MOVLW   0x01
0118 0000      00916         BANKSEL _LCDWaiting
011A 6F00      00917         MOVWF   _LCDWaiting, B
               00918 ;       .line   399; TCPIP_Stack/LCDNonBlocking.c       TMR1L                   =       (0x10000 - 2)   & 0xff;
gpasm-0.13.7 beta               Objects/LCDNonBlocking.asm12-10-2017  20:48:42         PAGE 18


LOC  OBJECT CODE     LINE SOURCE TEXT
  VALUE
 
011C 0EFE      00919         MOVLW   0xfe
011E 6E00      00920         MOVWF   _TMR1L
               00921 ;       .line   400; TCPIP_Stack/LCDNonBlocking.c       TMR1H                   =       (0x10000 - 2)   >> 8;
0120 0EFF      00922         MOVLW   0xff
0122 6E00      00923         MOVWF   _TMR1H
               00924 ;       .line   401; TCPIP_Stack/LCDNonBlocking.c       T1CONbits.TMR1ON        =       1;
0124 8000      00925         BSF     _T1CONbits, 0
               00926 ;       .line   402; TCPIP_Stack/LCDNonBlocking.c       break;
0126 D000      00927         BRA     _00214_DS_
0128 00928 _00197_DS_:
               00929 ;       .line   406; TCPIP_Stack/LCDNonBlocking.c       LCDWrite(0, 0xC0);
0128 0EC0      00930         MOVLW   0xc0
012A 6EE5      00931         MOVWF   POSTDEC1
012C 0E00      00932         MOVLW   0x00
012E 6EE5      00933         MOVWF   POSTDEC1
0130 EC00 F000 00934         CALL    _LCDWrite
0134 0E02      00935         MOVLW   0x02
0136 26E1      00936         ADDWF   FSR1L, F
               00937 ;       .line   408; TCPIP_Stack/LCDNonBlocking.c       LCDWaiting = 1;
0138 0E01      00938         MOVLW   0x01
013A 0000      00939         BANKSEL _LCDWaiting
013C 6F00      00940         MOVWF   _LCDWaiting, B
               00941 ;       .line   409; TCPIP_Stack/LCDNonBlocking.c       TMR1L                   =       (0x10000 - 2)   & 0xff;
013E 0EFE      00942         MOVLW   0xfe
0140 6E00      00943         MOVWF   _TMR1L
               00944 ;       .line   410; TCPIP_Stack/LCDNonBlocking.c       TMR1H                   =       (0x10000 - 2)   >> 8;
0142 0EFF      00945         MOVLW   0xff
0144 6E00      00946         MOVWF   _TMR1H
               00947 ;       .line   411; TCPIP_Stack/LCDNonBlocking.c       T1CONbits.TMR1ON        =       1;
0146 8000      00948         BSF     _T1CONbits, 0
               00949 ;       .line   412; TCPIP_Stack/LCDNonBlocking.c       st_update = LCD_OUTSECONDLINE;
0148 0E03      00950         MOVLW   0x03
014A 0000      00951         BANKSEL _st_update
014C 6F00      00952         MOVWF   _st_update, B
               00953 ;       .line   413; TCPIP_Stack/LCDNonBlocking.c       LCDi = 16;
014E 0E10      00954         MOVLW   0x10
0150 0000      00955         BANKSEL _LCDi
0152 6F00      00956         MOVWF   _LCDi, B
               00957 ;       .line   414; TCPIP_Stack/LCDNonBlocking.c       break;
0154 D000      00958         BRA     _00214_DS_
0156 00959 _00198_DS_:
               00960 ;       .line   419; TCPIP_Stack/LCDNonBlocking.c       if(LCDText[LCDi] == 0u)
0156 0E00      00961         MOVLW   LOW(_LCDText)
0158 0000      00962         BANKSEL _LCDi
015A 2500      00963         ADDWF   _LCDi, W, B
015C 6E00      00964         MOVWF   r0x00
015E 6A00      00965         CLRF    r0x01
0160 0E00      00966         MOVLW   HIGH(_LCDText)
0162 2200      00967         ADDWFC  r0x01, F
0164 C000 FFE9 00968         MOVFF   r0x00, FSR0L
0168 C000 FFEA 00969         MOVFF   r0x01, FSR0H
016C CFEF F000 00970         MOVFF   INDF0, r0x00
0170 5000      00971         MOVF    r0x00, W
0172 E100      00972         BNZ     _00200_DS_
gpasm-0.13.7 beta               Objects/LCDNonBlocking.asm12-10-2017  20:48:42         PAGE 19


LOC  OBJECT CODE     LINE SOURCE TEXT
  VALUE
 
               00973 ;       .line   421; TCPIP_Stack/LCDNonBlocking.c       for(LCDj=LCDi; LCDj < 32u; LCDj++)
0174 C000 F000 00974         MOVFF   _LCDi, _LCDj
0178 00975 _00210_DS_:
0178 C000 F000 00976         MOVFF   _LCDj, r0x01
017C 6A00      00977         CLRF    r0x02
017E 0E00      00978         MOVLW   0x00
0180 5C00      00979         SUBWF   r0x02, W
0182 E100      00980         BNZ     _00229_DS_
0184 0E20      00981         MOVLW   0x20
0186 5C00      00982         SUBWF   r0x01, W
0188 00983 _00229_DS_:
0188 E200      00984         BC      _00200_DS_
               00985 ;       .line   423; TCPIP_Stack/LCDNonBlocking.c       LCDText[LCDj] = ' ';
018A 0E00      00986         MOVLW   LOW(_LCDText)
018C 0000      00987         BANKSEL _LCDj
018E 2500      00988         ADDWF   _LCDj, W, B
0190 6E00      00989         MOVWF   r0x01
0192 6A00      00990         CLRF    r0x02
0194 0E00      00991         MOVLW   HIGH(_LCDText)
0196 2200      00992         ADDWFC  r0x02, F
0198 C000 FFE9 00993         MOVFF   r0x01, FSR0L
019C C000 FFEA 00994         MOVFF   r0x02, FSR0H
01A0 0E20      00995         MOVLW   0x20
01A2 6EEF      00996         MOVWF   INDF0
01A4 0000      00997         BANKSEL _LCDj
               00998 ;       .line   421; TCPIP_Stack/LCDNonBlocking.c       for(LCDj=LCDi; LCDj < 32u; LCDj++)
01A6 2B00      00999         INCF    _LCDj, F, B
01A8 D000      01000         BRA     _00210_DS_
01AA 01001 _00200_DS_:
               01002 ;       .line   426; TCPIP_Stack/LCDNonBlocking.c       LCDWrite(1, LCDText[LCDi]);
01AA 5000      01003         MOVF    r0x00, W
01AC 6EE5      01004         MOVWF   POSTDEC1
01AE 0E01      01005         MOVLW   0x01
01B0 6EE5      01006         MOVWF   POSTDEC1
01B2 EC00 F000 01007         CALL    _LCDWrite
01B6 0E02      01008         MOVLW   0x02
01B8 26E1      01009         ADDWF   FSR1L, F
               01010 ;       .line   428; TCPIP_Stack/LCDNonBlocking.c       if (LCDi >= 32u)
01BA C000 F000 01011         MOVFF   _LCDi, r0x00
01BE 6A00      01012         CLRF    r0x01
01C0 0E00      01013         MOVLW   0x00
01C2 5C00      01014         SUBWF   r0x01, W
01C4 E100      01015         BNZ     _00230_DS_
01C6 0E20      01016         MOVLW   0x20
01C8 5C00      01017         SUBWF   r0x00, W
01CA 01018 _00230_DS_:
01CA E300      01019         BNC     _00202_DS_
               01020 ;       .line   429; TCPIP_Stack/LCDNonBlocking.c       st_update = LCD_ENDUPDATE;
01CC 0E04      01021         MOVLW   0x04
01CE 0000      01022         BANKSEL _st_update
01D0 6F00      01023         MOVWF   _st_update, B
01D2 01024 _00202_DS_:
01D2 0000      01025         BANKSEL _LCDi
               01026 ;       .line   430; TCPIP_Stack/LCDNonBlocking.c       LCDi++;
gpasm-0.13.7 beta               Objects/LCDNonBlocking.asm12-10-2017  20:48:42         PAGE 20


LOC  OBJECT CODE     LINE SOURCE TEXT
  VALUE
 
01D4 2B00      01027         INCF    _LCDi, F, B
               01028 ;       .line   432; TCPIP_Stack/LCDNonBlocking.c       LCDWaiting = 1;
01D6 0E01      01029         MOVLW   0x01
01D8 0000      01030         BANKSEL _LCDWaiting
01DA 6F00      01031         MOVWF   _LCDWaiting, B
               01032 ;       .line   433; TCPIP_Stack/LCDNonBlocking.c       TMR1L                   =       (0x10000 - 2)   & 0xff;
01DC 0EFE      01033         MOVLW   0xfe
01DE 6E00      01034         MOVWF   _TMR1L
               01035 ;       .line   434; TCPIP_Stack/LCDNonBlocking.c       TMR1H                   =       (0x10000 - 2)   >> 8;
01E0 0EFF      01036         MOVLW   0xff
01E2 6E00      01037         MOVWF   _TMR1H
               01038 ;       .line   435; TCPIP_Stack/LCDNonBlocking.c       T1CONbits.TMR1ON        =       1;
01E4 8000      01039         BSF     _T1CONbits, 0
               01040 ;       .line   436; TCPIP_Stack/LCDNonBlocking.c       break;
01E6 D000      01041         BRA     _00214_DS_
01E8 01042 _00203_DS_:
01E8 0000      01043         BANKSEL _LCDOpInProgress
               01044 ;       .line   439; TCPIP_Stack/LCDNonBlocking.c       LCDOpInProgress = 0;
01EA 6B00      01045         CLRF    _LCDOpInProgress, B
01EC 0000      01046         BANKSEL _st_update
               01047 ;       .line   440; TCPIP_Stack/LCDNonBlocking.c       st_update = LCD_GOTOFIRSTLINE;
01EE 6B00      01048         CLRF    _st_update, B
01F0 01049 _00214_DS_:
               01050 ;       .line   446; TCPIP_Stack/LCDNonBlocking.c       }
01F0 CFE4 F000 01051         MOVFF   PREINC1, r0x02
01F4 CFE4 F000 01052         MOVFF   PREINC1, r0x01
01F8 CFE4 F000 01053         MOVFF   PREINC1, r0x00
01FC CFE4 FFD9 01054         MOVFF   PREINC1, FSR2L
0200 0012      01055         RETURN  
               01056 
               01057 ; ; Starting pCode block
               01058 S_LCDNonBlocking__LCDEraseExec  code
0000 01059 _LCDEraseExec:
               01060 ;       .line   334; TCPIP_Stack/LCDNonBlocking.c       static void LCDEraseExec(void)
0000 CFD9 FFE5 01061         MOVFF   FSR2L, POSTDEC1
0004 CFE1 FFD9 01062         MOVFF   FSR1L, FSR2L
0008 C000 FFE5 01063         MOVFF   r0x00, POSTDEC1
               01064 ;       .line   336; TCPIP_Stack/LCDNonBlocking.c       switch(st_erase)
000C C000 F000 01065         MOVFF   _st_erase, r0x00
0010 5000      01066         MOVF    r0x00, W
0012 E000      01067         BZ      _00175_DS_
0014 01068 _00184_DS_:
0014 0000      01069         BANKSEL _st_erase
0016 5100      01070         MOVF    _st_erase, W, B
0018 0A01      01071         XORLW   0x01
001A E000      01072         BZ      _00176_DS_
001C D000      01073         BRA     _00179_DS_
001E 01074 _00175_DS_:
               01075 ;       .line   340; TCPIP_Stack/LCDNonBlocking.c       LCDWrite(0, 0x01);
001E 0E01      01076         MOVLW   0x01
0020 6EE5      01077         MOVWF   POSTDEC1
0022 0E00      01078         MOVLW   0x00
0024 6EE5      01079         MOVWF   POSTDEC1
0026 EC00 F000 01080         CALL    _LCDWrite
gpasm-0.13.7 beta               Objects/LCDNonBlocking.asm12-10-2017  20:48:42         PAGE 21


LOC  OBJECT CODE     LINE SOURCE TEXT
  VALUE
 
002A 0E02      01081         MOVLW   0x02
002C 26E1      01082         ADDWF   FSR1L, F
               01083 ;       .line   342; TCPIP_Stack/LCDNonBlocking.c       LCDWaiting = 1;
002E 0E01      01084         MOVLW   0x01
0030 0000      01085         BANKSEL _LCDWaiting
0032 6F00      01086         MOVWF   _LCDWaiting, B
               01087 ;       .line   343; TCPIP_Stack/LCDNonBlocking.c       TMR1L                   =       (0x10000 - 66)  & 0xff;
0034 0EBE      01088         MOVLW   0xbe
0036 6E00      01089         MOVWF   _TMR1L
               01090 ;       .line   344; TCPIP_Stack/LCDNonBlocking.c       TMR1H                   =       (0x10000 - 66)  >> 8;
0038 0EFF      01091         MOVLW   0xff
003A 6E00      01092         MOVWF   _TMR1H
               01093 ;       .line   345; TCPIP_Stack/LCDNonBlocking.c       T1CONbits.TMR1ON        =       1;
003C 8000      01094         BSF     _T1CONbits, 0
               01095 ;       .line   347; TCPIP_Stack/LCDNonBlocking.c       st_erase = LCD_CLEARLOCAL;
003E 0E01      01096         MOVLW   0x01
0040 0000      01097         BANKSEL _st_erase
0042 6F00      01098         MOVWF   _st_erase, B
               01099 ;       .line   348; TCPIP_Stack/LCDNonBlocking.c       break;
0044 D000      01100         BRA     _00179_DS_
0046 01101 _00176_DS_:
               01102 ;       .line   352; TCPIP_Stack/LCDNonBlocking.c       memset(LCDText, ' ', 32);
0046 0E00      01103         MOVLW   0x00
0048 6EE5      01104         MOVWF   POSTDEC1
004A 0E20      01105         MOVLW   0x20
004C 6EE5      01106         MOVWF   POSTDEC1
004E 0E20      01107         MOVLW   0x20
0050 6EE5      01108         MOVWF   POSTDEC1
0052 0E00      01109         MOVLW   HIGH(_LCDText)
0054 6EE5      01110         MOVWF   POSTDEC1
0056 0E00      01111         MOVLW   LOW(_LCDText)
0058 6EE5      01112         MOVWF   POSTDEC1
005A EC00 F000 01113         CALL    _memset
005E 0E05      01114         MOVLW   0x05
0060 26E1      01115         ADDWF   FSR1L, F
0062 0000      01116         BANKSEL _LCDOpInProgress
               01117 ;       .line   354; TCPIP_Stack/LCDNonBlocking.c       LCDOpInProgress = 0;
0064 6B00      01118         CLRF    _LCDOpInProgress, B
0066 0000      01119         BANKSEL _st_erase
               01120 ;       .line   356; TCPIP_Stack/LCDNonBlocking.c       st_erase = LCD_CLEARDISPLAY;
0068 6B00      01121         CLRF    _st_erase, B
006A 01122 _00179_DS_:
               01123 ;       .line   362; TCPIP_Stack/LCDNonBlocking.c       }
006A CFE4 F000 01124         MOVFF   PREINC1, r0x00
006E CFE4 FFD9 01125         MOVFF   PREINC1, FSR2L
0072 0012      01126         RETURN  
               01127 
               01128 ; ; Starting pCode block
               01129 S_LCDNonBlocking__LCDInitExec   code
0000 01130 _LCDInitExec:
               01131 ;       .line   173; TCPIP_Stack/LCDNonBlocking.c       static void LCDInitExec(void)
0000 CFD9 FFE5 01132         MOVFF   FSR2L, POSTDEC1
0004 CFE1 FFD9 01133         MOVFF   FSR1L, FSR2L
0008 C000 FFE5 01134         MOVFF   r0x00, POSTDEC1
gpasm-0.13.7 beta               Objects/LCDNonBlocking.asm12-10-2017  20:48:42         PAGE 22


LOC  OBJECT CODE     LINE SOURCE TEXT
  VALUE
 
000C C000 FFE5 01135         MOVFF   r0x01, POSTDEC1
0010 C000 FFE5 01136         MOVFF   r0x02, POSTDEC1
0014 C000 FFE5 01137         MOVFF   r0x03, POSTDEC1
0018 C000 FFE5 01138         MOVFF   r0x04, POSTDEC1
001C C000 FFE5 01139         MOVFF   r0x05, POSTDEC1
0020 C000 FFE5 01140         MOVFF   r0x06, POSTDEC1
0024 C000 FFE5 01141         MOVFF   r0x07, POSTDEC1
               01142 ;       .line   175; TCPIP_Stack/LCDNonBlocking.c       switch (st_init)
0028 0E08      01143         MOVLW   0x08
002A 0000      01144         BANKSEL _st_init
002C 5D00      01145         SUBWF   _st_init, W, B
002E B0D8      01146         BTFSC   STATUS, 0
0030 D000      01147         BRA     _00161_DS_
0032 C000 FFE5 01148         MOVFF   r0x08, POSTDEC1
0036 C000 FFE5 01149         MOVFF   r0x09, POSTDEC1
003A 6A00      01150         CLRF    r0x09
003C 0000      01151         BANKSEL _st_init
003E 3500      01152         RLCF    _st_init, W, B
0040 3600      01153         RLCF    r0x09, F
0042 34E8      01154         RLCF    WREG, W
0044 3600      01155         RLCF    r0x09, F
0046 0BFC      01156         ANDLW   0xfc
0048 6E00      01157         MOVWF   r0x08
004A 0E00      01158         MOVLW   UPPER(_00169_DS_)
004C 6EFB      01159         MOVWF   PCLATU
004E 0E00      01160         MOVLW   HIGH(_00169_DS_)
0050 6EFA      01161         MOVWF   PCLATH
0052 0E00      01162         MOVLW   LOW(_00169_DS_)
0054 2600      01163         ADDWF   r0x08, F
0056 5000      01164         MOVF    r0x09, W
0058 22FA      01165         ADDWFC  PCLATH, F
005A B0D8      01166         BTFSC   STATUS, 0
005C 2AFB      01167         INCF    PCLATU, F
005E 5000      01168         MOVF    r0x08, W
0060 CFE4 F000 01169         MOVFF   PREINC1, r0x09
0064 CFE4 F000 01170         MOVFF   PREINC1, r0x08
0068 6EF9      01171         MOVWF   PCL
006A 01172 _00169_DS_:
006A EF00 F000 01173         GOTO    _00143_DS_
006E EF00 F000 01174         GOTO    _00144_DS_
0072 EF00 F000 01175         GOTO    _00145_DS_
0076 EF00 F000 01176         GOTO    _00154_DS_
007A EF00 F000 01177         GOTO    _00155_DS_
007E EF00 F000 01178         GOTO    _00156_DS_
0082 EF00 F000 01179         GOTO    _00157_DS_
0086 EF00 F000 01180         GOTO    _00158_DS_
008A 01181 _00143_DS_:
               01182 ;       .line   178; TCPIP_Stack/LCDNonBlocking.c       memset(LCDText, ' ', sizeof(LCDText)-1);
008A 0E00      01183         MOVLW   0x00
008C 6EE5      01184         MOVWF   POSTDEC1
008E 0E20      01185         MOVLW   0x20
0090 6EE5      01186         MOVWF   POSTDEC1
0092 0E20      01187         MOVLW   0x20
0094 6EE5      01188         MOVWF   POSTDEC1
gpasm-0.13.7 beta               Objects/LCDNonBlocking.asm12-10-2017  20:48:42         PAGE 23


LOC  OBJECT CODE     LINE SOURCE TEXT
  VALUE
 
0096 0E00      01189         MOVLW   HIGH(_LCDText)
0098 6EE5      01190         MOVWF   POSTDEC1
009A 0E00      01191         MOVLW   LOW(_LCDText)
009C 6EE5      01192         MOVWF   POSTDEC1
009E EC00 F000 01193         CALL    _memset
00A2 0E05      01194         MOVLW   0x05
00A4 26E1      01195         ADDWF   FSR1L, F
00A6 0000      01196         BANKSEL (_LCDText + 32)
               01197 ;       .line   179; TCPIP_Stack/LCDNonBlocking.c       LCDText[sizeof(LCDText)-1] = 0;
00A8 6B00      01198         CLRF    (_LCDText + 32), B
               01199 ;       .line   181; TCPIP_Stack/LCDNonBlocking.c       LCD_E_IO = 0;
00AA 9000      01200         BCF     _LATHbits, 0
               01201 ;       .line   182; TCPIP_Stack/LCDNonBlocking.c       LCD_RD_WR_IO = 0;
00AC 9200      01202         BCF     _LATHbits, 1
               01203 ;       .line   184; TCPIP_Stack/LCDNonBlocking.c       LCD_DATA_TRIS = 0x00;
00AE 6A00      01204         CLRF    _TRISE
               01205 ;       .line   197; TCPIP_Stack/LCDNonBlocking.c       LCD_RD_WR_TRIS = 0;
00B0 9200      01206         BCF     _TRISHbits, 1
               01207 ;       .line   198; TCPIP_Stack/LCDNonBlocking.c       LCD_RS_TRIS = 0;
00B2 9400      01208         BCF     _TRISHbits, 2
               01209 ;       .line   199; TCPIP_Stack/LCDNonBlocking.c       LCD_E_TRIS = 0;
00B4 9000      01210         BCF     _TRISHbits, 0
               01211 ;       .line   201; TCPIP_Stack/LCDNonBlocking.c       LCDWaiting = 1;
00B6 0E01      01212         MOVLW   0x01
00B8 0000      01213         BANKSEL _LCDWaiting
00BA 6F00      01214         MOVWF   _LCDWaiting, B
               01215 ;       .line   202; TCPIP_Stack/LCDNonBlocking.c       TMR1L                   =       (0x10000 - 1311)        & 0xff;
00BC 0EE1      01216         MOVLW   0xe1
00BE 6E00      01217         MOVWF   _TMR1L
               01218 ;       .line   203; TCPIP_Stack/LCDNonBlocking.c       TMR1H                   =       (0x10000 - 1311)        >> 8;
00C0 0EFA      01219         MOVLW   0xfa
00C2 6E00      01220         MOVWF   _TMR1H
               01221 ;       .line   204; TCPIP_Stack/LCDNonBlocking.c       T1CONbits.TMR1ON        =       1;
00C4 8000      01222         BSF     _T1CONbits, 0
               01223 ;       .line   206; TCPIP_Stack/LCDNonBlocking.c       st_init = LCD_DEFAULTFUNC1;
00C6 0E01      01224         MOVLW   0x01
00C8 0000      01225         BANKSEL _st_init
00CA 6F00      01226         MOVWF   _st_init, B
               01227 ;       .line   207; TCPIP_Stack/LCDNonBlocking.c       break;
00CC D000      01228         BRA     _00161_DS_
00CE 01229 _00144_DS_:
               01230 ;       .line   216; TCPIP_Stack/LCDNonBlocking.c       LCD_RS_IO = 0;
00CE 9400      01231         BCF     _LATHbits, 2
               01232 ;       .line   218; TCPIP_Stack/LCDNonBlocking.c       LCD_DATA_IO = 0x03;
00D0 0E03      01233         MOVLW   0x03
00D2 6E00      01234         MOVWF   _LATE
               01235 ;       .line   234; TCPIP_Stack/LCDNonBlocking.c       st_init = LCD_EPULSETIME;
00D4 0E02      01236         MOVLW   0x02
00D6 0000      01237         BANKSEL _st_init
00D8 6F00      01238         MOVWF   _st_init, B
00DA 0000      01239         BANKSEL _LCDi
               01240 ;       .line   235; TCPIP_Stack/LCDNonBlocking.c       LCDi = 0;
00DC 6B00      01241         CLRF    _LCDi, B
               01242 ;       .line   236; TCPIP_Stack/LCDNonBlocking.c       break;
gpasm-0.13.7 beta               Objects/LCDNonBlocking.asm12-10-2017  20:48:42         PAGE 24


LOC  OBJECT CODE     LINE SOURCE TEXT
  VALUE
 
00DE D000      01243         BRA     _00161_DS_
00E0 01244 _00145_DS_:
               01245 ;       .line   239; TCPIP_Stack/LCDNonBlocking.c       LCD_E_IO = 1;
00E0 8000      01246         BSF     _LATHbits, 0
               01247 ;       .line   240; TCPIP_Stack/LCDNonBlocking.c       Delay10us(1);                   // Wait E Pulse width time (min 230ns)
00E2 0E11      01248         MOVLW   0x11
00E4 6E00      01249         MOVWF   r0x00
00E6 6A00      01250         CLRF    r0x01
00E8 6A00      01251         CLRF    r0x02
00EA 6A00      01252         CLRF    r0x03
00EC 01253 _00146_DS_:
00EC C000 F000 01254         MOVFF   r0x00, r0x04
00F0 C000 F000 01255         MOVFF   r0x01, r0x05
00F4 C000 F000 01256         MOVFF   r0x02, r0x06
00F8 C000 F000 01257         MOVFF   r0x03, r0x07
00FC 0EFF      01258         MOVLW   0xff
00FE 2600      01259         ADDWF   r0x00, F
0100 0EFF      01260         MOVLW   0xff
0102 2200      01261         ADDWFC  r0x01, F
0104 0EFF      01262         MOVLW   0xff
0106 2200      01263         ADDWFC  r0x02, F
0108 0EFF      01264         MOVLW   0xff
010A 2200      01265         ADDWFC  r0x03, F
010C 5000      01266         MOVF    r0x04, W
010E 1000      01267         IORWF   r0x05, W
0110 1000      01268         IORWF   r0x06, W
0112 1000      01269         IORWF   r0x07, W
0114 E100      01270         BNZ     _00146_DS_
               01271 ;       .line   241; TCPIP_Stack/LCDNonBlocking.c       LCD_E_IO = 0;
0116 9000      01272         BCF     _LATHbits, 0
               01273 ;       .line   243; TCPIP_Stack/LCDNonBlocking.c       if (LCDi >= 3u)
0118 C000 F000 01274         MOVFF   _LCDi, r0x00
011C 6A00      01275         CLRF    r0x01
011E 0E00      01276         MOVLW   0x00
0120 5C00      01277         SUBWF   r0x01, W
0122 E100      01278         BNZ     _00170_DS_
0124 0E03      01279         MOVLW   0x03
0126 5C00      01280         SUBWF   r0x00, W
0128 01281 _00170_DS_:
0128 E300      01282         BNC     _00153_DS_
               01283 ;       .line   244; TCPIP_Stack/LCDNonBlocking.c       st_init = LCD_DEFAULTFUNC2;
012A 0E03      01284         MOVLW   0x03
012C 0000      01285         BANKSEL _st_init
012E 6F00      01286         MOVWF   _st_init, B
0130 01287 _00153_DS_:
0130 0000      01288         BANKSEL _LCDi
               01289 ;       .line   245; TCPIP_Stack/LCDNonBlocking.c       LCDi++;
0132 2B00      01290         INCF    _LCDi, F, B
               01291 ;       .line   247; TCPIP_Stack/LCDNonBlocking.c       LCDWaiting = 1;
0134 0E01      01292         MOVLW   0x01
0136 0000      01293         BANKSEL _LCDWaiting
0138 6F00      01294         MOVWF   _LCDWaiting, B
               01295 ;       .line   248; TCPIP_Stack/LCDNonBlocking.c       TMR1L                   =       (0x10000 - 66)  & 0xff;
013A 0EBE      01296         MOVLW   0xbe
gpasm-0.13.7 beta               Objects/LCDNonBlocking.asm12-10-2017  20:48:42         PAGE 25


LOC  OBJECT CODE     LINE SOURCE TEXT
  VALUE
 
013C 6E00      01297         MOVWF   _TMR1L
               01298 ;       .line   249; TCPIP_Stack/LCDNonBlocking.c       TMR1H                   =       (0x10000 - 66)  >> 8;
013E 0EFF      01299         MOVLW   0xff
0140 6E00      01300         MOVWF   _TMR1H
               01301 ;       .line   250; TCPIP_Stack/LCDNonBlocking.c       T1CONbits.TMR1ON        =       1;
0142 8000      01302         BSF     _T1CONbits, 0
               01303 ;       .line   251; TCPIP_Stack/LCDNonBlocking.c       break;
0144 D000      01304         BRA     _00161_DS_
0146 01305 _00154_DS_:
               01306 ;       .line   276; TCPIP_Stack/LCDNonBlocking.c       LCDWrite(0, 0x38);
0146 0E38      01307         MOVLW   0x38
0148 6EE5      01308         MOVWF   POSTDEC1
014A 0E00      01309         MOVLW   0x00
014C 6EE5      01310         MOVWF   POSTDEC1
014E EC00 F000 01311         CALL    _LCDWrite
0152 0E02      01312         MOVLW   0x02
0154 26E1      01313         ADDWF   FSR1L, F
               01314 ;       .line   279; TCPIP_Stack/LCDNonBlocking.c       LCDWaiting = 1;
0156 0E01      01315         MOVLW   0x01
0158 0000      01316         BANKSEL _LCDWaiting
015A 6F00      01317         MOVWF   _LCDWaiting, B
               01318 ;       .line   280; TCPIP_Stack/LCDNonBlocking.c       TMR1L                   =       (0x10000 - 2)   & 0xff;
015C 0EFE      01319         MOVLW   0xfe
015E 6E00      01320         MOVWF   _TMR1L
               01321 ;       .line   281; TCPIP_Stack/LCDNonBlocking.c       TMR1H                   =       (0x10000 - 2)   >> 8;
0160 0EFF      01322         MOVLW   0xff
0162 6E00      01323         MOVWF   _TMR1H
               01324 ;       .line   282; TCPIP_Stack/LCDNonBlocking.c       T1CONbits.TMR1ON        =       1;
0164 8000      01325         BSF     _T1CONbits, 0
               01326 ;       .line   284; TCPIP_Stack/LCDNonBlocking.c       st_init = LCD_ENTRYMODE;
0166 0E04      01327         MOVLW   0x04
0168 0000      01328         BANKSEL _st_init
016A 6F00      01329         MOVWF   _st_init, B
               01330 ;       .line   285; TCPIP_Stack/LCDNonBlocking.c       break;
016C D000      01331         BRA     _00161_DS_
016E 01332 _00155_DS_:
               01333 ;       .line   288; TCPIP_Stack/LCDNonBlocking.c       LCDWrite(0, 0x06);      // Increment after each write, do not shift
016E 0E06      01334         MOVLW   0x06
0170 6EE5      01335         MOVWF   POSTDEC1
0172 0E00      01336         MOVLW   0x00
0174 6EE5      01337         MOVWF   POSTDEC1
0176 EC00 F000 01338         CALL    _LCDWrite
017A 0E02      01339         MOVLW   0x02
017C 26E1      01340         ADDWF   FSR1L, F
               01341 ;       .line   290; TCPIP_Stack/LCDNonBlocking.c       LCDWaiting = 1;
017E 0E01      01342         MOVLW   0x01
0180 0000      01343         BANKSEL _LCDWaiting
0182 6F00      01344         MOVWF   _LCDWaiting, B
               01345 ;       .line   291; TCPIP_Stack/LCDNonBlocking.c       TMR1L                   =       (0x10000 - 2)   & 0xff;
0184 0EFE      01346         MOVLW   0xfe
0186 6E00      01347         MOVWF   _TMR1L
               01348 ;       .line   292; TCPIP_Stack/LCDNonBlocking.c       TMR1H                   =       (0x10000 - 2)   >> 8;
0188 0EFF      01349         MOVLW   0xff
018A 6E00      01350         MOVWF   _TMR1H
gpasm-0.13.7 beta               Objects/LCDNonBlocking.asm12-10-2017  20:48:42         PAGE 26


LOC  OBJECT CODE     LINE SOURCE TEXT
  VALUE
 
               01351 ;       .line   293; TCPIP_Stack/LCDNonBlocking.c       T1CONbits.TMR1ON        =       1;
018C 8000      01352         BSF     _T1CONbits, 0
               01353 ;       .line   295; TCPIP_Stack/LCDNonBlocking.c       st_init = LCD_DISPLAYCONTROL;
018E 0E05      01354         MOVLW   0x05
0190 0000      01355         BANKSEL _st_init
0192 6F00      01356         MOVWF   _st_init, B
               01357 ;       .line   296; TCPIP_Stack/LCDNonBlocking.c       break;
0194 D000      01358         BRA     _00161_DS_
0196 01359 _00156_DS_:
               01360 ;       .line   299; TCPIP_Stack/LCDNonBlocking.c       LCDWrite(0, 0x0C);              // Turn display on, no cusor, no cursor blink
0196 0E0C      01361         MOVLW   0x0c
0198 6EE5      01362         MOVWF   POSTDEC1
019A 0E00      01363         MOVLW   0x00
019C 6EE5      01364         MOVWF   POSTDEC1
019E EC00 F000 01365         CALL    _LCDWrite
01A2 0E02      01366         MOVLW   0x02
01A4 26E1      01367         ADDWF   FSR1L, F
               01368 ;       .line   301; TCPIP_Stack/LCDNonBlocking.c       LCDWaiting = 1;
01A6 0E01      01369         MOVLW   0x01
01A8 0000      01370         BANKSEL _LCDWaiting
01AA 6F00      01371         MOVWF   _LCDWaiting, B
               01372 ;       .line   302; TCPIP_Stack/LCDNonBlocking.c       TMR1L                   =       (0x10000 - 2)   & 0xff;
01AC 0EFE      01373         MOVLW   0xfe
01AE 6E00      01374         MOVWF   _TMR1L
               01375 ;       .line   303; TCPIP_Stack/LCDNonBlocking.c       TMR1H                   =       (0x10000 - 2)   >> 8;
01B0 0EFF      01376         MOVLW   0xff
01B2 6E00      01377         MOVWF   _TMR1H
               01378 ;       .line   304; TCPIP_Stack/LCDNonBlocking.c       T1CONbits.TMR1ON        =       1;
01B4 8000      01379         BSF     _T1CONbits, 0
               01380 ;       .line   306; TCPIP_Stack/LCDNonBlocking.c       st_init = LCD_CLEAR;
01B6 0E06      01381         MOVLW   0x06
01B8 0000      01382         BANKSEL _st_init
01BA 6F00      01383         MOVWF   _st_init, B
               01384 ;       .line   307; TCPIP_Stack/LCDNonBlocking.c       break;
01BC D000      01385         BRA     _00161_DS_
01BE 01386 _00157_DS_:
               01387 ;       .line   310; TCPIP_Stack/LCDNonBlocking.c       LCDWrite(0, 0x01);      
01BE 0E01      01388         MOVLW   0x01
01C0 6EE5      01389         MOVWF   POSTDEC1
01C2 0E00      01390         MOVLW   0x00
01C4 6EE5      01391         MOVWF   POSTDEC1
01C6 EC00 F000 01392         CALL    _LCDWrite
01CA 0E02      01393         MOVLW   0x02
01CC 26E1      01394         ADDWF   FSR1L, F
               01395 ;       .line   312; TCPIP_Stack/LCDNonBlocking.c       LCDWaiting = 1;
01CE 0E01      01396         MOVLW   0x01
01D0 0000      01397         BANKSEL _LCDWaiting
01D2 6F00      01398         MOVWF   _LCDWaiting, B
               01399 ;       .line   313; TCPIP_Stack/LCDNonBlocking.c       TMR1L                   =       (0x10000 - 66)  & 0xff;
01D4 0EBE      01400         MOVLW   0xbe
01D6 6E00      01401         MOVWF   _TMR1L
               01402 ;       .line   314; TCPIP_Stack/LCDNonBlocking.c       TMR1H                   =       (0x10000 - 66)  >> 8;
01D8 0EFF      01403         MOVLW   0xff
01DA 6E00      01404         MOVWF   _TMR1H
gpasm-0.13.7 beta               Objects/LCDNonBlocking.asm12-10-2017  20:48:42         PAGE 27


LOC  OBJECT CODE     LINE SOURCE TEXT
  VALUE
 
               01405 ;       .line   315; TCPIP_Stack/LCDNonBlocking.c       T1CONbits.TMR1ON        =       1;
01DC 8000      01406         BSF     _T1CONbits, 0
               01407 ;       .line   317; TCPIP_Stack/LCDNonBlocking.c       st_init = LCD_ENDINIT;
01DE 0E07      01408         MOVLW   0x07
01E0 0000      01409         BANKSEL _st_init
01E2 6F00      01410         MOVWF   _st_init, B
               01411 ;       .line   318; TCPIP_Stack/LCDNonBlocking.c       break;
01E4 D000      01412         BRA     _00161_DS_
01E6 01413 _00158_DS_:
01E6 0000      01414         BANKSEL _LCDOpInProgress
               01415 ;       .line   322; TCPIP_Stack/LCDNonBlocking.c       LCDOpInProgress = 0;
01E8 6B00      01416         CLRF    _LCDOpInProgress, B
01EA 0000      01417         BANKSEL _st_init
               01418 ;       .line   324; TCPIP_Stack/LCDNonBlocking.c       st_init = LCD_RESET;
01EC 6B00      01419         CLRF    _st_init, B
01EE 01420 _00161_DS_:
               01421 ;       .line   330; TCPIP_Stack/LCDNonBlocking.c       }
01EE CFE4 F000 01422         MOVFF   PREINC1, r0x07
01F2 CFE4 F000 01423         MOVFF   PREINC1, r0x06
01F6 CFE4 F000 01424         MOVFF   PREINC1, r0x05
01FA CFE4 F000 01425         MOVFF   PREINC1, r0x04
01FE CFE4 F000 01426         MOVFF   PREINC1, r0x03
0202 CFE4 F000 01427         MOVFF   PREINC1, r0x02
0206 CFE4 F000 01428         MOVFF   PREINC1, r0x01
020A CFE4 F000 01429         MOVFF   PREINC1, r0x00
020E CFE4 FFD9 01430         MOVFF   PREINC1, FSR2L
0212 0012      01431         RETURN  
               01432 
               01433 ; ; Starting pCode block
               01434 S_LCDNonBlocking__LCDWrite      code
0000 01435 _LCDWrite:
               01436 ;       .line   77; TCPIP_Stack/LCDNonBlocking.c        static void LCDWrite(BYTE RS, BYTE Data)
0000 CFD9 FFE5 01437         MOVFF   FSR2L, POSTDEC1
0004 CFE1 FFD9 01438         MOVFF   FSR1L, FSR2L
0008 C000 FFE5 01439         MOVFF   r0x00, POSTDEC1
000C C000 FFE5 01440         MOVFF   r0x01, POSTDEC1
0010 0E02      01441         MOVLW   0x02
0012 CFDB F000 01442         MOVFF   PLUSW2, r0x00
0016 0E03      01443         MOVLW   0x03
0018 CFDB F000 01444         MOVFF   PLUSW2, r0x01
               01445 ;       .line   80; TCPIP_Stack/LCDNonBlocking.c        LCD_DATA_TRIS = 0x00;
001C 6A00      01446         CLRF    _TRISE
               01447 ;       .line   93; TCPIP_Stack/LCDNonBlocking.c        LCD_RS_TRIS = 0;
001E 9400      01448         BCF     _TRISHbits, 2
               01449 ;       .line   94; TCPIP_Stack/LCDNonBlocking.c        LCD_RD_WR_TRIS = 0;
0020 9200      01450         BCF     _TRISHbits, 1
               01451 ;       .line   95; TCPIP_Stack/LCDNonBlocking.c        LCD_RD_WR_IO = 0;
0022 9200      01452         BCF     _LATHbits, 1
               01453 ;       .line   96; TCPIP_Stack/LCDNonBlocking.c        LCD_RS_IO = RS;
0024 5000      01454         MOVF    r0x00, W
0026 0B01      01455         ANDLW   0x01
0028 44E8      01456         RLNCF   WREG, W
002A 44E8      01457         RLNCF   WREG, W
002C 6EF4      01458         MOVWF   PRODH
gpasm-0.13.7 beta               Objects/LCDNonBlocking.asm12-10-2017  20:48:42         PAGE 28


LOC  OBJECT CODE     LINE SOURCE TEXT
  VALUE
 
002E 5000      01459         MOVF    _LATHbits, W
0030 0BFB      01460         ANDLW   0xfb
0032 10F4      01461         IORWF   PRODH, W
0034 6E00      01462         MOVWF   _LATHbits
               01463 ;       .line   123; TCPIP_Stack/LCDNonBlocking.c       LCD_DATA_IO = Data;
0036 C000 F000 01464         MOVFF   r0x01, _LATE
003A 0000      01465         nop 
003C 0000      01466         nop 
               01467 ;       .line   138; TCPIP_Stack/LCDNonBlocking.c       LCD_E_IO = 1;
003E 8000      01468         BSF     _LATHbits, 0
0040 0000      01469         nop 
0042 0000      01470         nop 
0044 0000      01471         nop 
0046 0000      01472         nop 
0048 0000      01473         nop 
004A 0000      01474         nop 
004C 0000      01475         nop 
004E 0000      01476         nop 
0050 0000      01477         nop 
               01478 ;       .line   148; TCPIP_Stack/LCDNonBlocking.c       LCD_E_IO = 0;
0052 9000      01479         BCF     _LATHbits, 0
0054 CFE4 F000 01480         MOVFF   PREINC1, r0x01
0058 CFE4 F000 01481         MOVFF   PREINC1, r0x00
005C CFE4 FFD9 01482         MOVFF   PREINC1, FSR2L
0060 0012      01483         RETURN  
               01484 
               01485 ; ; Starting pCode block
0062 01486 __str_0:
0062 0000      01487         DB      0x00
               01488 
               01489 
               01490 ; Statistics:
               01491 ; code size:     1716 (0x06b4) bytes ( 1.31%)
               01492 ;                 858 (0x035a) words
               01493 ; udata size:      74 (0x004a) bytes ( 1.93%)
               01494 ; access size:     10 (0x000a) bytes
               01495 
               01496 
gpasm-0.13.7 beta               Objects/LCDNonBlocking.asm12-10-2017  20:48:42         PAGE 29


SYMBOL TABLE
  LABEL                             VALUE 

FSR0H                             00000FEA
FSR0L                             00000FE9
FSR1L                             00000FE1
FSR2L                             00000FD9
INDF0                             00000FEF
PCL                               00000FF9
PCLATH                            00000FFA
PCLATU                            00000FFB
PLUSW2                            00000FDB
POSTDEC1                          00000FE5
PREINC1                           00000FE4
PRODH                             00000FF4
STATUS                            00000FD8
WREG                              00000FE8
_00143_DS_                        0000008A
_00144_DS_                        000000CE
_00145_DS_                        000000E0
_00146_DS_                        000000EC
_00153_DS_                        00000130
_00154_DS_                        00000146
_00155_DS_                        0000016E
_00156_DS_                        00000196
_00157_DS_                        000001BE
_00158_DS_                        000001E6
_00161_DS_                        000001EE
_00169_DS_                        0000006A
_00170_DS_                        00000128
_00175_DS_                        0000001E
_00176_DS_                        00000046
_00179_DS_                        0000006A
_00184_DS_                        00000014
_00191_DS_                        0000006A
_00192_DS_                        00000096
_00194_DS_                        000000EA
_00196_DS_                        00000112
_00197_DS_                        00000128
_00198_DS_                        00000156
_00200_DS_                        000001AA
_00202_DS_                        000001D2
_00203_DS_                        000001E8
_00206_DS_                        000000B8
_00210_DS_                        00000178
_00214_DS_                        000001F0
_00226_DS_                        00000056
_00227_DS_                        000000C8
_00228_DS_                        0000010A
_00229_DS_                        00000188
_00230_DS_                        000001CA
_00241_DS_                        00000032
_00246_DS_                        00000080
_00247_DS_                        000000EA
_00248_DS_                        000000F0
_00249_DS_                        000000F6
gpasm-0.13.7 beta               Objects/LCDNonBlocking.asm12-10-2017  20:48:42         PAGE 30


LOC  OBJECT CODE     LINE SOURCE TEXT
  VALUE
 
_00255_DS_                        000000FA
_00267_DS_                        000000DE
_ADCON0                           00000000
_ADCON0bits                       00000000
_ADCON1                           00000000
_ADCON1bits                       00000000
_ADCON2                           00000000
_ADCON2bits                       00000000
_ADRES                            00000000
_ADRESH                           00000000
_ADRESL                           00000000
_AN0String                        00000000
_AppConfig                        00000000
_BAUDCON                          00000000
_BAUDCON1                         00000000
_BAUDCON1bits                     00000000
_BAUDCON2                         00000000
_BAUDCON2bits                     00000000
_BAUDCONbits                      00000000
_BAUDCTL                          00000000
_BAUDCTL1                         00000000
_BAUDCTL1bits                     00000000
_BAUDCTL2                         00000000
_BAUDCTL2bits                     00000000
_BAUDCTLbits                      00000000
_BSR                              00000000
_CCP1CON                          00000000
_CCP1CONbits                      00000000
_CCP2CON                          00000000
_CCP2CONbits                      00000000
_CCP3CON                          00000000
_CCP3CONbits                      00000000
_CCP4CON                          00000000
_CCP4CONbits                      00000000
_CCP5CON                          00000000
_CCP5CONbits                      00000000
_CCPR1                            00000000
_CCPR1H                           00000000
_CCPR1L                           00000000
_CCPR2                            00000000
_CCPR2H                           00000000
_CCPR2L                           00000000
_CCPR3                            00000000
_CCPR3H                           00000000
_CCPR3L                           00000000
_CCPR4                            00000000
_CCPR4H                           00000000
_CCPR4L                           00000000
_CCPR5                            00000000
_CCPR5H                           00000000
_CCPR5L                           00000000
_CMCON                            00000000
_CMCONbits                        00000000
_CVRCON                           00000000
gpasm-0.13.7 beta               Objects/LCDNonBlocking.asm12-10-2017  20:48:42         PAGE 31


LOC  OBJECT CODE     LINE SOURCE TEXT
  VALUE
 
_CVRCONbits                       00000000
_DDRA                             00000000
_DDRAbits                         00000000
_DDRB                             00000000
_DDRBbits                         00000000
_DDRC                             00000000
_DDRCbits                         00000000
_DDRD                             00000000
_DDRDbits                         00000000
_DDRE                             00000000
_DDREbits                         00000000
_DDRF                             00000000
_DDRFbits                         00000000
_DDRG                             00000000
_DDRGbits                         00000000
_DDRH                             00000000
_DDRHbits                         00000000
_DDRJ                             00000000
_DDRJbits                         00000000
_EBSTCON                          00000000
_EBSTCONbits                      00000000
_EBSTCS                           00000000
_EBSTCSH                          00000000
_EBSTCSL                          00000000
_EBSTSD                           00000000
_ECCP1AS                          00000000
_ECCP1ASbits                      00000000
_ECCP1CON                         00000000
_ECCP1CONbits                     00000000
_ECCP1DEL                         00000000
_ECCP1DELbits                     00000000
_ECCP2AS                          00000000
_ECCP2ASbits                      00000000
_ECCP2CON                         00000000
_ECCP2CONbits                     00000000
_ECCP2DEL                         00000000
_ECCP2DELbits                     00000000
_ECCP3AS                          00000000
_ECCP3ASbits                      00000000
_ECCP3CON                         00000000
_ECCP3CONbits                     00000000
_ECCP3DEL                         00000000
_ECCP3DELbits                     00000000
_ECON1                            00000000
_ECON1bits                        00000000
_ECON2                            00000000
_ECON2bits                        00000000
_EDATA                            00000000
_EDATAbits                        00000000
_EDMACS                           00000000
_EDMACSH                          00000000
_EDMACSL                          00000000
_EDMADST                          00000000
_EDMADSTH                         00000000
gpasm-0.13.7 beta               Objects/LCDNonBlocking.asm12-10-2017  20:48:42         PAGE 32


LOC  OBJECT CODE     LINE SOURCE TEXT
  VALUE
 
_EDMADSTL                         00000000
_EDMAND                           00000000
_EDMANDH                          00000000
_EDMANDL                          00000000
_EDMAST                           00000000
_EDMASTH                          00000000
_EDMASTL                          00000000
_EECON1                           00000000
_EECON1bits                       00000000
_EECON2                           00000000
_EFLOCON                          00000000
_EFLOCONbits                      00000000
_EHT0                             00000000
_EHT1                             00000000
_EHT2                             00000000
_EHT3                             00000000
_EHT4                             00000000
_EHT5                             00000000
_EHT6                             00000000
_EHT7                             00000000
_EIE                              00000000
_EIEbits                          00000000
_EIR                              00000000
_EIRbits                          00000000
_EPAUS                            00000000
_EPAUSH                           00000000
_EPAUSL                           00000000
_EPKTCNT                          00000000
_EPMCS                            00000000
_EPMCSH                           00000000
_EPMCSL                           00000000
_EPMM0                            00000000
_EPMM1                            00000000
_EPMM2                            00000000
_EPMM3                            00000000
_EPMM4                            00000000
_EPMM5                            00000000
_EPMM6                            00000000
_EPMM7                            00000000
_EPMO                             00000000
_EPMOH                            00000000
_EPMOL                            00000000
_ERDPT                            00000000
_ERDPTH                           00000000
_ERDPTL                           00000000
_ERXFCON                          00000000
_ERXFCONbits                      00000000
_ERXND                            00000000
_ERXNDH                           00000000
_ERXNDL                           00000000
_ERXRDPT                          00000000
_ERXRDPTH                         00000000
_ERXRDPTL                         00000000
_ERXST                            00000000
gpasm-0.13.7 beta               Objects/LCDNonBlocking.asm12-10-2017  20:48:42         PAGE 33


LOC  OBJECT CODE     LINE SOURCE TEXT
  VALUE
 
_ERXSTH                           00000000
_ERXSTL                           00000000
_ERXWRPT                          00000000
_ERXWRPTH                         00000000
_ERXWRPTL                         00000000
_ESTAT                            00000000
_ESTATbits                        00000000
_ETXND                            00000000
_ETXNDH                           00000000
_ETXNDL                           00000000
_ETXST                            00000000
_ETXSTH                           00000000
_ETXSTL                           00000000
_EWOLIE                           00000000
_EWOLIEbits                       00000000
_EWOLIR                           00000000
_EWOLIRbits                       00000000
_EWRPT                            00000000
_EWRPTH                           00000000
_EWRPTL                           00000000
_FSR0H                            00000000
_FSR0L                            00000000
_FSR1H                            00000000
_FSR1L                            00000000
_FSR2H                            00000000
_FSR2L                            00000000
_INDF0                            00000000
_INDF1                            00000000
_INDF2                            00000000
_INTCON                           00000000
_INTCON2                          00000000
_INTCON2bits                      00000000
_INTCON3                          00000000
_INTCON3bits                      00000000
_INTCONbits                       00000000
_IPR1                             00000000
_IPR1bits                         00000000
_IPR2                             00000000
_IPR2bits                         00000000
_IPR3                             00000000
_IPR3bits                         00000000
_LATA                             00000000
_LATAbits                         00000000
_LATB                             00000000
_LATBbits                         00000000
_LATC                             00000000
_LATCbits                         00000000
_LATD                             00000000
_LATDbits                         00000000
_LATE                             00000000
_LATEbits                         00000000
_LATF                             00000000
_LATFbits                         00000000
_LATG                             00000000
gpasm-0.13.7 beta               Objects/LCDNonBlocking.asm12-10-2017  20:48:42         PAGE 34


LOC  OBJECT CODE     LINE SOURCE TEXT
  VALUE
 
_LATGbits                         00000000
_LATH                             00000000
_LATHbits                         00000000
_LATJ                             00000000
_LATJbits                         00000000
_LCDCurrentOrder                  00000000
_LCDCurrentText                   00000000
_LCDErase                         00000000
_LCDEraseExec                     00000000
_LCDInit                          00000000
_LCDInitExec                      00000000
_LCDListInit                      00000000
_LCDListIsEmpty                   00000000
_LCDListPop                       00000000
_LCDListPush                      00000000
_LCDOpInProgress                  00000000
_LCDTask                          00000000
_LCDTaskInit                      00000000
_LCDText                          00000000
_LCDUpdate                        00000000
_LCDUpdateExec                    00000000
_LCDWaiting                       00000000
_LCDWrite                         00000000
_LCDi                             00000000
_LCDj                             00000000
_MAADR1                           00000000
_MAADR2                           00000000
_MAADR3                           00000000
_MAADR4                           00000000
_MAADR5                           00000000
_MAADR6                           00000000
_MABBIPG                          00000000
_MACLCON1                         00000000
_MACLCON1bits                     00000000
_MACLCON2                         00000000
_MACLCON2bits                     00000000
_MACON1                           00000000
_MACON1bits                       00000000
_MACON2                           00000000
_MACON2bits                       00000000
_MACON3                           00000000
_MACON3bits                       00000000
_MACON4                           00000000
_MACON4bits                       00000000
_MAIPG                            00000000
_MAIPGH                           00000000
_MAIPGL                           00000000
_MAMXFL                           00000000
_MAMXFLH                          00000000
_MAMXFLL                          00000000
_MEMCON                           00000000
_MEMCONbits                       00000000
_MICMD                            00000000
_MICMDbits                        00000000
gpasm-0.13.7 beta               Objects/LCDNonBlocking.asm12-10-2017  20:48:42         PAGE 35


LOC  OBJECT CODE     LINE SOURCE TEXT
  VALUE
 
_MICON                            00000000
_MICONbits                        00000000
_MIRD                             00000000
_MIRDH                            00000000
_MIRDL                            00000000
_MIREGADR                         00000000
_MISTAT                           00000000
_MISTATbits                       00000000
_MIWR                             00000000
_MIWRH                            00000000
_MIWRL                            00000000
_OSCCON                           00000000
_OSCCONbits                       00000000
_OSCTUNE                          00000000
_OSCTUNEbits                      00000000
_PC                               00000000
_PCL                              00000000
_PCLATH                           00000000
_PCLATU                           00000000
_PIE1                             00000000
_PIE1bits                         00000000
_PIE2                             00000000
_PIE2bits                         00000000
_PIE3                             00000000
_PIE3bits                         00000000
_PIR1                             00000000
_PIR1bits                         00000000
_PIR2                             00000000
_PIR2bits                         00000000
_PIR3                             00000000
_PIR3bits                         00000000
_PLUSW0                           00000000
_PLUSW1                           00000000
_PLUSW2                           00000000
_PORTA                            00000000
_PORTAbits                        00000000
_PORTB                            00000000
_PORTBbits                        00000000
_PORTC                            00000000
_PORTCbits                        00000000
_PORTD                            00000000
_PORTDbits                        00000000
_PORTE                            00000000
_PORTEbits                        00000000
_PORTF                            00000000
_PORTFbits                        00000000
_PORTG                            00000000
_PORTGbits                        00000000
_PORTH                            00000000
_PORTHbits                        00000000
_PORTJ                            00000000
_PORTJbits                        00000000
_POSTDEC0                         00000000
_POSTDEC1                         00000000
gpasm-0.13.7 beta               Objects/LCDNonBlocking.asm12-10-2017  20:48:42         PAGE 36


LOC  OBJECT CODE     LINE SOURCE TEXT
  VALUE
 
_POSTDEC2                         00000000
_POSTINC0                         00000000
_POSTINC1                         00000000
_POSTINC2                         00000000
_PR2                              00000000
_PR4                              00000000
_PREINC0                          00000000
_PREINC1                          00000000
_PREINC2                          00000000
_PROD                             00000000
_PRODH                            00000000
_PRODL                            00000000
_PSPCON                           00000000
_PSPCONbits                       00000000
_RCON                             00000000
_RCONbits                         00000000
_RCREG                            00000000
_RCREG1                           00000000
_RCREG2                           00000000
_RCSTA                            00000000
_RCSTA1                           00000000
_RCSTA1bits                       00000000
_RCSTA2                           00000000
_RCSTA2bits                       00000000
_RCSTAbits                        00000000
_SPBRG                            00000000
_SPBRG1                           00000000
_SPBRG2                           00000000
_SPBRGH                           00000000
_SPBRGH1                          00000000
_SPBRGH2                          00000000
_SSP1ADD                          00000000
_SSP1BUF                          00000000
_SSP1CON1                         00000000
_SSP1CON1bits                     00000000
_SSP1CON2                         00000000
_SSP1CON2bits                     00000000
_SSP1STAT                         00000000
_SSP1STATbits                     00000000
_SSP2ADD                          00000000
_SSP2BUF                          00000000
_SSP2CON1                         00000000
_SSP2CON1bits                     00000000
_SSP2CON2                         00000000
_SSP2CON2bits                     00000000
_SSP2STAT                         00000000
_SSP2STATbits                     00000000
_SSPADD                           00000000
_SSPBUF                           00000000
_SSPCON1                          00000000
_SSPCON1bits                      00000000
_SSPCON2                          00000000
_SSPCON2bits                      00000000
_SSPSTAT                          00000000
gpasm-0.13.7 beta               Objects/LCDNonBlocking.asm12-10-2017  20:48:42         PAGE 37


LOC  OBJECT CODE     LINE SOURCE TEXT
  VALUE
 
_SSPSTATbits                      00000000
_STATUS                           00000000
_STATUSbits                       00000000
_STKPTR                           00000000
_STKPTRbits                       00000000
_T0CON                            00000000
_T0CONbits                        00000000
_T1CON                            00000000
_T1CONbits                        00000000
_T2CON                            00000000
_T2CONbits                        00000000
_T3CON                            00000000
_T3CONbits                        00000000
_T4CON                            00000000
_T4CONbits                        00000000
_TABLAT                           00000000
_TBLPTR                           00000000
_TBLPTRH                          00000000
_TBLPTRL                          00000000
_TBLPTRU                          00000000
_TMR0H                            00000000
_TMR0L                            00000000
_TMR1H                            00000000
_TMR1L                            00000000
_TMR2                             00000000
_TMR3H                            00000000
_TMR3L                            00000000
_TMR4                             00000000
_TOS                              00000000
_TOSH                             00000000
_TOSL                             00000000
_TOSU                             00000000
_TRISA                            00000000
_TRISAbits                        00000000
_TRISB                            00000000
_TRISBbits                        00000000
_TRISC                            00000000
_TRISCbits                        00000000
_TRISD                            00000000
_TRISDbits                        00000000
_TRISE                            00000000
_TRISEbits                        00000000
_TRISF                            00000000
_TRISFbits                        00000000
_TRISG                            00000000
_TRISGbits                        00000000
_TRISH                            00000000
_TRISHbits                        00000000
_TRISJ                            00000000
_TRISJbits                        00000000
_TXREG                            00000000
_TXREG1                           00000000
_TXREG2                           00000000
_TXSTA                            00000000
gpasm-0.13.7 beta               Objects/LCDNonBlocking.asm12-10-2017  20:48:42         PAGE 38


LOC  OBJECT CODE     LINE SOURCE TEXT
  VALUE
 
_TXSTA1                           00000000
_TXSTA1bits                       00000000
_TXSTA2                           00000000
_TXSTA2bits                       00000000
_TXSTAbits                        00000000
_UDPRxCount                       00000000
_UDPSocketInfo                    00000000
_UDPTxCount                       00000000
_WDTCON                           00000000
_WDTCONbits                       00000000
_WREG                             00000000
__18F97J60                        00000001
__str_0                           00000062
_activeUDPSocket                  00000000
_memset                           00000000
_st_erase                         00000000
_st_init                          00000000
_st_update                        00000000
_stdin                            00000000
_stdout                           00000000
r0x00                             00000000
r0x01                             00000001
r0x02                             00000002
r0x03                             00000003
r0x04                             00000004
r0x05                             00000005
r0x06                             00000006
r0x07                             00000007
r0x08                             00000008
r0x09                             00000009


Errors   :       0
Warnings :       0 reported,       0 suppressed
Messages :       0 reported,       0 suppressed

